///////////////////////////////////////////////////////////////////////////////
//
// IAR ANSI C/C++ Compiler V8.20.2.14835/W32 for ARM      05/Mar/2018  12:23:38
// Copyright 1999-2017 IAR Systems AB.
//
//    Cpu mode     =  thumb
//    Endian       =  little
//    Source file  =  
//        D:\workspace\LPLD_OSKinetis_V3\project\Overload\app\LQ12864.c
//    Command line =  
//        -f C:\Users\JoyC\AppData\Local\Temp\EW1557.tmp
//        (D:\workspace\LPLD_OSKinetis_V3\project\Overload\app\LQ12864.c -D
//        LPLD_K60 -D USE_K60DZ10 -lCN
//        D:\workspace\LPLD_OSKinetis_V3\project\Overload\iar\RAM\List -lB
//        D:\workspace\LPLD_OSKinetis_V3\project\Overload\iar\RAM\List -o
//        D:\workspace\LPLD_OSKinetis_V3\project\Overload\iar\RAM\Obj --no_cse
//        --no_unroll --no_inline --no_code_motion --no_tbaa --no_clustering
//        --no_scheduling --debug --endian=little --cpu=Cortex-M4 -e --fpu=None
//        --dlib_config "D:\Program Files\IAR Systems\Embedded Workbench
//        8.0\arm\INC\c\DLib_Config_Normal.h" -I
//        D:\workspace\LPLD_OSKinetis_V3\project\Overload\iar\..\app\ -I
//        D:\workspace\LPLD_OSKinetis_V3\project\Overload\iar\..\..\..\lib\CPU\
//        -I
//        D:\workspace\LPLD_OSKinetis_V3\project\Overload\iar\..\..\..\lib\common\
//        -I
//        D:\workspace\LPLD_OSKinetis_V3\project\Overload\iar\..\..\..\lib\LPLD\
//        -I
//        D:\workspace\LPLD_OSKinetis_V3\project\Overload\iar\..\..\..\lib\LPLD\HW\
//        -I
//        D:\workspace\LPLD_OSKinetis_V3\project\Overload\iar\..\..\..\lib\LPLD\DEV\
//        -I
//        D:\workspace\LPLD_OSKinetis_V3\project\Overload\iar\..\..\..\lib\LPLD\FUNC\
//        -I
//        D:\workspace\LPLD_OSKinetis_V3\project\Overload\iar\..\..\..\lib\uCOS-II\Ports\
//        -I
//        D:\workspace\LPLD_OSKinetis_V3\project\Overload\iar\..\..\..\lib\uCOS-II\Source\
//        -I
//        D:\workspace\LPLD_OSKinetis_V3\project\Overload\iar\..\..\..\lib\FatFs\
//        -I
//        D:\workspace\LPLD_OSKinetis_V3\project\Overload\iar\..\..\..\lib\FatFs\option\
//        -I
//        D:\workspace\LPLD_OSKinetis_V3\project\Overload\iar\..\..\..\lib\USB\common\
//        -I
//        D:\workspace\LPLD_OSKinetis_V3\project\Overload\iar\..\..\..\lib\USB\driver\
//        -I
//        D:\workspace\LPLD_OSKinetis_V3\project\Overload\iar\..\..\..\lib\USB\descriptor\
//        -I
//        D:\workspace\LPLD_OSKinetis_V3\project\Overload\iar\..\..\..\lib\USB\class\
//        -Ol -I "D:\Program Files\IAR Systems\Embedded Workbench
//        8.0\arm\CMSIS\Include\" -D ARM_MATH_CM4)
//    Locale       =  C
//    List file    =  
//        D:\workspace\LPLD_OSKinetis_V3\project\Overload\iar\RAM\List\LQ12864.s
//
///////////////////////////////////////////////////////////////////////////////

        #define SHT_PROGBITS 0x1

        EXTERN GPIO_Init
        EXTERN __aeabi_cfrcmple
        EXTERN __aeabi_f2iz
        EXTERN __aeabi_fmul

        PUBLIC Draw_BMP
        PUBLIC Draw_LQLogo
        PUBLIC Draw_LibLogo
        PUBLIC F14x16
        PUBLIC F14x16_Idx
        PUBLIC F6x8
        PUBLIC F8X16
        PUBLIC LCD_CLS
        PUBLIC LCD_ClrDot
        PUBLIC LCD_DLY_ms
        PUBLIC LCD_Fill
        PUBLIC LCD_Init
        PUBLIC LCD_P14x16Str
        PUBLIC LCD_P6x8Str
        PUBLIC LCD_P8x16Str
        PUBLIC LCD_Print
        PUBLIC LCD_PrintFloat
        PUBLIC LCD_PrintU16
        PUBLIC LCD_PutPixel
        PUBLIC LCD_Rectangle
        PUBLIC LCD_Set_Pos
        PUBLIC LCD_WrCmd
        PUBLIC LCD_WrDat
        PUBLIC LIBLOGO60x58
        PUBLIC longqiu96x64

// D:\workspace\LPLD_OSKinetis_V3\project\Overload\app\LQ12864.c
//    1 /********************************************
//    2 龙丘MC9S12XEP100多功能开发板 
//    3 Designed by Chiu Sir
//    4 E-mail:chiusir@163.com
//    5 软件版本:V1.1
//    6 最后更新:2009年4月12日
//    7 相关信息参考下列地址：
//    8 博客：  http://longqiu.21ic.org
//    9 淘宝店：http://shop36265907.taobao.com
//   10 ------------------------------------
//   11 Code Warrior 5.0
//   12 Target : MC9S12XEP100
//   13 Crystal: 16.000Mhz
//   14 busclock:16.000MHz
//   15 pllclock:32.000MHz
//   16 ============================================*/
//   17 #include "include.h"
//   18 
//   19 //--------------------@@IO@@-----------------//
//   20 #define LCD_DC       PTC13_O
//   21 #define LCD_RST      PTC14_O
//   22 #define LCD_SDA	     PTC15_O  
//   23 #define LCD_SCL	     PTC16_O  
//   24 
//   25 
//   26 
//   27 
//   28 
//   29 #define X_WIDTH 128
//   30 #define Y_WIDTH 64
//   31 
//   32 
//   33 
//   34 
//   35 //======================================

        SECTION `.rodata`:CONST:REORDER:NOROOT(2)
        DATA
//   36 const unsigned char F6x8[][6] =
F6x8:
        DC8 0, 0, 0, 0, 0, 0, 0, 0, 0, 47, 0, 0, 0, 0, 7, 0, 7, 0, 0, 20, 127
        DC8 20, 127, 20, 0, 36, 42, 127, 42, 18, 0, 98, 100, 8, 19, 35, 0, 54
        DC8 73, 85, 34, 80, 0, 0, 5, 3, 0, 0, 0, 0, 28, 34, 65, 0, 0, 0, 65, 34
        DC8 28, 0, 0, 20, 8, 62, 8, 20, 0, 8, 8, 62, 8, 8, 0, 0, 0, 160, 96, 0
        DC8 0, 8, 8, 8, 8, 8, 0, 0, 96, 96, 0, 0, 0, 32, 16, 8, 4, 2, 0, 62, 81
        DC8 73, 69, 62, 0, 0, 66, 127, 64, 0, 0, 66, 97, 81, 73, 70, 0, 33, 65
        DC8 69, 75, 49, 0, 24, 20, 18, 127, 16, 0, 39, 69, 69, 69, 57, 0, 60
        DC8 74, 73, 73, 48, 0, 1, 113, 9, 5, 3, 0, 54, 73, 73, 73, 54, 0, 6, 73
        DC8 73, 41, 30, 0, 0, 54, 54, 0, 0, 0, 0, 86, 54, 0, 0, 0, 8, 20, 34
        DC8 65, 0, 0, 20, 20, 20, 20, 20, 0, 0, 65, 34, 20, 8, 0, 2, 1, 81, 9
        DC8 6, 0, 50, 73, 89, 81, 62, 0, 124, 18, 17, 18, 124, 0, 127, 73, 73
        DC8 73, 54, 0, 62, 65, 65, 65, 34, 0, 127, 65, 65, 34, 28, 0, 127, 73
        DC8 73, 73, 65, 0, 127, 9, 9, 9, 1, 0, 62, 65, 73, 73, 122, 0, 127, 8
        DC8 8, 8, 127, 0, 0, 65, 127, 65, 0, 0, 32, 64, 65, 63, 1, 0, 127, 8
        DC8 20, 34, 65, 0, 127, 64, 64, 64, 64, 0, 127, 2, 12, 2, 127, 0, 127
        DC8 4, 8, 16, 127, 0, 62, 65, 65, 65, 62, 0, 127, 9, 9, 9, 6, 0, 62, 65
        DC8 81, 33, 94, 0, 127, 9, 25, 41, 70, 0, 70, 73, 73, 73, 49, 0, 1, 1
        DC8 127, 1, 1, 0, 63, 64, 64, 64, 63, 0, 31, 32, 64, 32, 31, 0, 63, 64
        DC8 56, 64, 63, 0, 99, 20, 8, 20, 99, 0, 7, 8, 112, 8, 7, 0, 97, 81, 73
        DC8 69, 67, 0, 0, 127, 65, 65, 0, 0, 85, 42, 85, 42, 85, 0, 0, 65, 65
        DC8 127, 0, 0, 4, 2, 1, 2, 4, 0, 64, 64, 64, 64, 64, 0, 0, 1, 2, 4, 0
        DC8 0, 32, 84, 84, 84, 120, 0, 127, 72, 68, 68, 56, 0, 56, 68, 68, 68
        DC8 32, 0, 56, 68, 68, 72, 127, 0, 56, 84, 84, 84, 24, 0, 8, 126, 9, 1
        DC8 2, 0, 24, 164, 164, 164, 124, 0, 127, 8, 4, 4, 120, 0, 0, 68, 125
        DC8 64, 0, 0, 64, 128, 132, 125, 0, 0, 127, 16, 40, 68, 0, 0, 0, 65
        DC8 127, 64, 0, 0, 124, 4, 24, 4, 120, 0, 124, 8, 4, 4, 120, 0, 56, 68
        DC8 68, 68, 56, 0, 252, 36, 36, 36, 24, 0, 24, 36, 36, 24, 252, 0, 124
        DC8 8, 4, 4, 8, 0, 72, 84, 84, 84, 32, 0, 4, 63, 68, 64, 32, 0, 60, 64
        DC8 64, 32, 124, 0, 28, 32, 64, 32, 28, 0, 60, 64, 48, 64, 60, 0, 68
        DC8 40, 16, 40, 68, 0, 28, 160, 160, 160, 124, 0, 68, 100, 84, 76, 68
        DC8 20, 20, 20, 20, 20, 20
//   37 {
//   38     { 0x00, 0x00, 0x00, 0x00, 0x00, 0x00 },   // sp
//   39     { 0x00, 0x00, 0x00, 0x2f, 0x00, 0x00 },   // !
//   40     { 0x00, 0x00, 0x07, 0x00, 0x07, 0x00 },   // "
//   41     { 0x00, 0x14, 0x7f, 0x14, 0x7f, 0x14 },   // #
//   42     { 0x00, 0x24, 0x2a, 0x7f, 0x2a, 0x12 },   // $
//   43     { 0x00, 0x62, 0x64, 0x08, 0x13, 0x23 },   // %
//   44     { 0x00, 0x36, 0x49, 0x55, 0x22, 0x50 },   // &
//   45     { 0x00, 0x00, 0x05, 0x03, 0x00, 0x00 },   // '
//   46     { 0x00, 0x00, 0x1c, 0x22, 0x41, 0x00 },   // (
//   47     { 0x00, 0x00, 0x41, 0x22, 0x1c, 0x00 },   // )
//   48     { 0x00, 0x14, 0x08, 0x3E, 0x08, 0x14 },   // *
//   49     { 0x00, 0x08, 0x08, 0x3E, 0x08, 0x08 },   // +
//   50     { 0x00, 0x00, 0x00, 0xA0, 0x60, 0x00 },   // ,
//   51     { 0x00, 0x08, 0x08, 0x08, 0x08, 0x08 },   // -
//   52     { 0x00, 0x00, 0x60, 0x60, 0x00, 0x00 },   // .
//   53     { 0x00, 0x20, 0x10, 0x08, 0x04, 0x02 },   // /
//   54     { 0x00, 0x3E, 0x51, 0x49, 0x45, 0x3E },   // 0
//   55     { 0x00, 0x00, 0x42, 0x7F, 0x40, 0x00 },   // 1
//   56     { 0x00, 0x42, 0x61, 0x51, 0x49, 0x46 },   // 2
//   57     { 0x00, 0x21, 0x41, 0x45, 0x4B, 0x31 },   // 3
//   58     { 0x00, 0x18, 0x14, 0x12, 0x7F, 0x10 },   // 4
//   59     { 0x00, 0x27, 0x45, 0x45, 0x45, 0x39 },   // 5
//   60     { 0x00, 0x3C, 0x4A, 0x49, 0x49, 0x30 },   // 6
//   61     { 0x00, 0x01, 0x71, 0x09, 0x05, 0x03 },   // 7
//   62     { 0x00, 0x36, 0x49, 0x49, 0x49, 0x36 },   // 8
//   63     { 0x00, 0x06, 0x49, 0x49, 0x29, 0x1E },   // 9
//   64     { 0x00, 0x00, 0x36, 0x36, 0x00, 0x00 },   // :
//   65     { 0x00, 0x00, 0x56, 0x36, 0x00, 0x00 },   // ;
//   66     { 0x00, 0x08, 0x14, 0x22, 0x41, 0x00 },   // <
//   67     { 0x00, 0x14, 0x14, 0x14, 0x14, 0x14 },   // =
//   68     { 0x00, 0x00, 0x41, 0x22, 0x14, 0x08 },   // >
//   69     { 0x00, 0x02, 0x01, 0x51, 0x09, 0x06 },   // ?
//   70     { 0x00, 0x32, 0x49, 0x59, 0x51, 0x3E },   // @
//   71     { 0x00, 0x7C, 0x12, 0x11, 0x12, 0x7C },   // A
//   72     { 0x00, 0x7F, 0x49, 0x49, 0x49, 0x36 },   // B
//   73     { 0x00, 0x3E, 0x41, 0x41, 0x41, 0x22 },   // C
//   74     { 0x00, 0x7F, 0x41, 0x41, 0x22, 0x1C },   // D
//   75     { 0x00, 0x7F, 0x49, 0x49, 0x49, 0x41 },   // E
//   76     { 0x00, 0x7F, 0x09, 0x09, 0x09, 0x01 },   // F
//   77     { 0x00, 0x3E, 0x41, 0x49, 0x49, 0x7A },   // G
//   78     { 0x00, 0x7F, 0x08, 0x08, 0x08, 0x7F },   // H
//   79     { 0x00, 0x00, 0x41, 0x7F, 0x41, 0x00 },   // I
//   80     { 0x00, 0x20, 0x40, 0x41, 0x3F, 0x01 },   // J
//   81     { 0x00, 0x7F, 0x08, 0x14, 0x22, 0x41 },   // K
//   82     { 0x00, 0x7F, 0x40, 0x40, 0x40, 0x40 },   // L
//   83     { 0x00, 0x7F, 0x02, 0x0C, 0x02, 0x7F },   // M
//   84     { 0x00, 0x7F, 0x04, 0x08, 0x10, 0x7F },   // N
//   85     { 0x00, 0x3E, 0x41, 0x41, 0x41, 0x3E },   // O
//   86     { 0x00, 0x7F, 0x09, 0x09, 0x09, 0x06 },   // P
//   87     { 0x00, 0x3E, 0x41, 0x51, 0x21, 0x5E },   // Q
//   88     { 0x00, 0x7F, 0x09, 0x19, 0x29, 0x46 },   // R
//   89     { 0x00, 0x46, 0x49, 0x49, 0x49, 0x31 },   // S
//   90     { 0x00, 0x01, 0x01, 0x7F, 0x01, 0x01 },   // T
//   91     { 0x00, 0x3F, 0x40, 0x40, 0x40, 0x3F },   // U
//   92     { 0x00, 0x1F, 0x20, 0x40, 0x20, 0x1F },   // V
//   93     { 0x00, 0x3F, 0x40, 0x38, 0x40, 0x3F },   // W
//   94     { 0x00, 0x63, 0x14, 0x08, 0x14, 0x63 },   // X
//   95     { 0x00, 0x07, 0x08, 0x70, 0x08, 0x07 },   // Y
//   96     { 0x00, 0x61, 0x51, 0x49, 0x45, 0x43 },   // Z
//   97     { 0x00, 0x00, 0x7F, 0x41, 0x41, 0x00 },   // [
//   98     { 0x00, 0x55, 0x2A, 0x55, 0x2A, 0x55 },   // 55
//   99     { 0x00, 0x00, 0x41, 0x41, 0x7F, 0x00 },   // ]
//  100     { 0x00, 0x04, 0x02, 0x01, 0x02, 0x04 },   // ^
//  101     { 0x00, 0x40, 0x40, 0x40, 0x40, 0x40 },   // _
//  102     { 0x00, 0x00, 0x01, 0x02, 0x04, 0x00 },   // '
//  103     { 0x00, 0x20, 0x54, 0x54, 0x54, 0x78 },   // a
//  104     { 0x00, 0x7F, 0x48, 0x44, 0x44, 0x38 },   // b
//  105     { 0x00, 0x38, 0x44, 0x44, 0x44, 0x20 },   // c
//  106     { 0x00, 0x38, 0x44, 0x44, 0x48, 0x7F },   // d
//  107     { 0x00, 0x38, 0x54, 0x54, 0x54, 0x18 },   // e
//  108     { 0x00, 0x08, 0x7E, 0x09, 0x01, 0x02 },   // f
//  109     { 0x00, 0x18, 0xA4, 0xA4, 0xA4, 0x7C },   // g
//  110     { 0x00, 0x7F, 0x08, 0x04, 0x04, 0x78 },   // h
//  111     { 0x00, 0x00, 0x44, 0x7D, 0x40, 0x00 },   // i
//  112     { 0x00, 0x40, 0x80, 0x84, 0x7D, 0x00 },   // j
//  113     { 0x00, 0x7F, 0x10, 0x28, 0x44, 0x00 },   // k
//  114     { 0x00, 0x00, 0x41, 0x7F, 0x40, 0x00 },   // l
//  115     { 0x00, 0x7C, 0x04, 0x18, 0x04, 0x78 },   // m
//  116     { 0x00, 0x7C, 0x08, 0x04, 0x04, 0x78 },   // n
//  117     { 0x00, 0x38, 0x44, 0x44, 0x44, 0x38 },   // o
//  118     { 0x00, 0xFC, 0x24, 0x24, 0x24, 0x18 },   // p
//  119     { 0x00, 0x18, 0x24, 0x24, 0x18, 0xFC },   // q
//  120     { 0x00, 0x7C, 0x08, 0x04, 0x04, 0x08 },   // r
//  121     { 0x00, 0x48, 0x54, 0x54, 0x54, 0x20 },   // s
//  122     { 0x00, 0x04, 0x3F, 0x44, 0x40, 0x20 },   // t
//  123     { 0x00, 0x3C, 0x40, 0x40, 0x20, 0x7C },   // u
//  124     { 0x00, 0x1C, 0x20, 0x40, 0x20, 0x1C },   // v
//  125     { 0x00, 0x3C, 0x40, 0x30, 0x40, 0x3C },   // w
//  126     { 0x00, 0x44, 0x28, 0x10, 0x28, 0x44 },   // x
//  127     { 0x00, 0x1C, 0xA0, 0xA0, 0xA0, 0x7C },   // y
//  128     { 0x00, 0x44, 0x64, 0x54, 0x4C, 0x44 },   // z
//  129     { 0x14, 0x14, 0x14, 0x14, 0x14, 0x14 }    // horiz lines
//  130 };

        SECTION `.rodata`:CONST:REORDER:NOROOT(2)
        DATA
//  131 const unsigned char F14x16_Idx[] = 
F14x16_Idx:
        DC8 0B1H, 0B1H, 0BEH, 0A9H, 0C1H, 0FAH, 0C7H, 0F0H
        DC8 0C7H, 0F1H, 0BFH, 0C6H, 0BCH, 0BCH, 0BFH, 0AAH
        DC8 0B7H, 0A2H, 0B0H, 0E5H, 0D6H, 0C7H, 0C4H, 0DCH
        DC8 0B3H, 0B5H, 0CAH, 0D7H, 0D1H, 0A1H, 0D2H, 0BAH
        DC8 0BEH, 0A7H, 0CAH, 0D2H, 0CEH, 0C2H, 0B6H, 0C8H
        DC8 0B0H, 0B4H, 0BCH, 0FCH, 0B4H, 0CEH, 0B5H, 0E7H
        DC8 0D1H, 0B9H, 0
        DC8 0
//  132 {
//  133 	"@@@@@@@@@@@@@@@@@@@@@@@@@"
//  134 };

        SECTION `.rodata`:CONST:REORDER:NOROOT(2)
        DATA
//  135 const unsigned char F14x16[] = {  
F14x16:
        DC8 32, 32, 32, 32, 255, 0, 0, 0, 255, 64, 32, 48, 24, 16, 48, 24, 8, 4
        DC8 127, 0, 0, 0, 63, 64, 64, 64, 64, 120, 4, 4, 228, 36, 36, 37, 38
        DC8 36, 36, 36, 228, 6, 4, 0, 32, 16, 25, 13, 65, 129, 127, 1, 1, 5, 13
        DC8 56, 16, 0, 16, 16, 16, 16, 16, 255, 16, 240, 18, 28, 208, 16, 16
        DC8 16, 64, 32, 16, 12, 3, 16, 8, 63, 66, 65, 64, 64, 64, 112, 0, 0
        DC8 254, 132, 132, 132, 132, 130, 130, 130, 130, 192, 128, 0, 32, 32
        DC8 63, 32, 32, 32, 32, 32, 63, 32, 32, 32, 48, 32, 0, 252, 36, 36, 226
        DC8 34, 34, 0, 254, 2, 34, 82, 142, 2, 16, 31, 16, 8, 15, 8, 8, 0, 255
        DC8 0, 8, 8, 16, 15, 18, 146, 114, 254, 81, 145, 0, 34, 204, 0, 0, 255
        DC8 0, 0, 2, 1, 0, 255, 0, 4, 4, 4, 2, 2, 2, 255, 1, 1, 8, 136, 255, 72
        DC8 40, 0, 200, 72, 72, 127, 72, 200, 72, 8, 65, 128, 127, 0, 64, 64
        DC8 32, 19, 12, 12, 18, 33, 96, 32, 66, 66, 66, 66, 254, 66, 66, 66, 66
        DC8 254, 66, 66, 66, 66, 64, 32, 16, 12, 3, 0, 0, 0, 0, 127, 0, 0, 0, 0
        DC8 16, 62, 16, 16, 240, 159, 144, 144, 146, 148, 28, 16, 16, 16, 32
        DC8 16, 136, 135, 65, 70, 40, 16, 40, 39, 64, 192, 64, 0, 16, 208, 255
        DC8 80, 144, 0, 254, 98, 162, 34, 33, 161, 97, 0, 3, 0, 127, 0, 17, 14
        DC8 65, 32, 17, 10, 14, 49, 96, 32, 20, 19, 146, 126, 50, 82, 146, 0
        DC8 124, 68, 68, 68, 124, 0, 1, 1, 0, 255, 73, 73, 73, 73, 73, 73, 255
        DC8 0, 0, 0, 184, 151, 146, 144, 148, 184, 16, 0, 127, 72, 72, 68, 116
        DC8 32, 255, 10, 10, 74, 138, 127, 0, 0, 63, 68, 68, 66, 114, 32, 4
        DC8 132, 196, 164, 156, 135, 132, 244, 132, 132, 132, 132, 132, 0, 4, 4
        DC8 4, 4, 4, 4, 4, 255, 4, 4, 4, 4, 4, 4, 4, 4, 228, 37, 38, 52, 44, 36
        DC8 36, 38, 229, 4, 4, 4, 0, 0, 127, 37, 37, 37, 37, 37, 37, 37, 127, 0
        DC8 0, 0, 64, 66, 204, 0, 80, 78, 200, 72, 127, 200, 72, 72, 64, 0, 64
        DC8 32, 31, 32, 72, 70, 65, 64, 64, 71, 72, 72, 78, 64, 97, 6, 224, 24
        DC8 132, 228, 28, 132, 101, 190, 36, 164, 100, 4, 4, 255, 0, 1, 0, 255
        DC8 65, 33, 18, 12, 27, 97, 192, 64, 0, 0, 0, 126, 42, 42, 42, 42, 42
        DC8 42, 126, 0, 0, 0, 127, 37, 37, 37, 37, 127, 0, 0, 127, 37, 37, 37
        DC8 37, 127, 16, 44, 36, 164, 100, 37, 38, 36, 36, 164, 36, 52, 44, 4
        DC8 64, 72, 73, 73, 73, 73, 127, 73, 73, 73, 75, 72, 64, 64, 33, 134
        DC8 112, 0, 126, 74, 74, 74, 74, 74, 126, 0, 0, 0, 254, 1, 64, 127, 65
        DC8 65, 127, 65, 65, 127, 65, 65, 127, 64, 0, 252, 4, 36, 36, 252, 165
        DC8 166, 164, 252, 36, 36, 36, 4, 96, 31, 128, 128, 66, 70, 42, 18, 18
        DC8 42, 38, 66, 192, 64, 16, 16, 255, 144, 80, 152, 136, 136, 233, 142
        DC8 136, 136, 152, 136, 66, 129, 127, 0, 64, 64, 38, 37, 24, 8, 22, 49
        DC8 96, 32, 48, 239, 40, 40, 68, 100, 220, 16, 84, 255, 84, 84, 124, 16
        DC8 1, 127, 33, 81, 34, 20, 15, 20, 37, 63, 69, 69, 69, 68, 2, 28, 192
        DC8 48, 76, 48, 15, 8, 248, 8, 8, 40, 24, 8, 94, 67, 32, 32, 16, 8, 4
        DC8 3, 1, 6, 8, 48, 96, 32, 0, 248, 72, 72, 72, 72, 255, 72, 72, 72, 72
        DC8 248, 0, 0, 0, 15, 4, 4, 4, 4, 63, 68, 68, 68, 68, 79, 64, 112, 0
        DC8 254, 2, 66, 66, 66, 66, 250, 66, 66, 66, 98, 66, 2, 24, 39, 32, 32
        DC8 32, 32, 32, 63, 32, 33, 46, 36, 32, 32
//  136 0x20,0x20,0x20,0x20,0xFF,0x00,0x00,0x00,0xFF,0x40,0x20,0x30,0x18,0x10,
//  137 0x30,0x18,0x08,0x04,0x7F,0x00,0x00,0x00,0x3F,0x40,0x40,0x40,0x40,0x78,//@0
//  138 0x04,0x04,0xE4,0x24,0x24,0x25,0x26,0x24,0x24,0x24,0xE4,0x06,0x04,0x00,
//  139 0x20,0x10,0x19,0x0D,0x41,0x81,0x7F,0x01,0x01,0x05,0x0D,0x38,0x10,0x00,//@1
//  140 0x10,0x10,0x10,0x10,0x10,0xFF,0x10,0xF0,0x12,0x1C,0xD0,0x10,0x10,0x10,
//  141 0x40,0x20,0x10,0x0C,0x03,0x10,0x08,0x3F,0x42,0x41,0x40,0x40,0x40,0x70,//@2
//  142 0x00,0x00,0xFE,0x84,0x84,0x84,0x84,0x82,0x82,0x82,0x82,0xC0,0x80,0x00,
//  143 0x20,0x20,0x3F,0x20,0x20,0x20,0x20,0x20,0x3F,0x20,0x20,0x20,0x30,0x20,//@3
//  144 0x00,0xFC,0x24,0x24,0xE2,0x22,0x22,0x00,0xFE,0x02,0x22,0x52,0x8E,0x02,
//  145 0x10,0x1F,0x10,0x08,0x0F,0x08,0x08,0x00,0xFF,0x00,0x08,0x08,0x10,0x0F,//@4
//  146 0x12,0x92,0x72,0xFE,0x51,0x91,0x00,0x22,0xCC,0x00,0x00,0xFF,0x00,0x00,
//  147 0x02,0x01,0x00,0xFF,0x00,0x04,0x04,0x04,0x02,0x02,0x02,0xFF,0x01,0x01,//@5
//  148 0x08,0x88,0xFF,0x48,0x28,0x00,0xC8,0x48,0x48,0x7F,0x48,0xC8,0x48,0x08,
//  149 0x41,0x80,0x7F,0x00,0x40,0x40,0x20,0x13,0x0C,0x0C,0x12,0x21,0x60,0x20,//@6
//  150 0x42,0x42,0x42,0x42,0xFE,0x42,0x42,0x42,0x42,0xFE,0x42,0x42,0x42,0x42,
//  151 0x40,0x20,0x10,0x0C,0x03,0x00,0x00,0x00,0x00,0x7F,0x00,0x00,0x00,0x00,//@7
//  152 0x10,0x3E,0x10,0x10,0xF0,0x9F,0x90,0x90,0x92,0x94,0x1C,0x10,0x10,0x10,
//  153 0x20,0x10,0x88,0x87,0x41,0x46,0x28,0x10,0x28,0x27,0x40,0xC0,0x40,0x00,//@8
//  154 0x10,0xD0,0xFF,0x50,0x90,0x00,0xFE,0x62,0xA2,0x22,0x21,0xA1,0x61,0x00,
//  155 0x03,0x00,0x7F,0x00,0x11,0x0E,0x41,0x20,0x11,0x0A,0x0E,0x31,0x60,0x20,//@9
//  156 0x14,0x13,0x92,0x7E,0x32,0x52,0x92,0x00,0x7C,0x44,0x44,0x44,0x7C,0x00,
//  157 0x01,0x01,0x00,0xFF,0x49,0x49,0x49,0x49,0x49,0x49,0xFF,0x00,0x00,0x00,//@10
//  158 0xB8,0x97,0x92,0x90,0x94,0xB8,0x10,0x00,0x7F,0x48,0x48,0x44,0x74,0x20,
//  159 0xFF,0x0A,0x0A,0x4A,0x8A,0x7F,0x00,0x00,0x3F,0x44,0x44,0x42,0x72,0x20,//@11
//  160 0x04,0x84,0xC4,0xA4,0x9C,0x87,0x84,0xF4,0x84,0x84,0x84,0x84,0x84,0x00,
//  161 0x04,0x04,0x04,0x04,0x04,0x04,0x04,0xFF,0x04,0x04,0x04,0x04,0x04,0x04,//@12
//  162 0x04,0x04,0xE4,0x25,0x26,0x34,0x2C,0x24,0x24,0x26,0xE5,0x04,0x04,0x04,
//  163 0x00,0x00,0x7F,0x25,0x25,0x25,0x25,0x25,0x25,0x25,0x7F,0x00,0x00,0x00,//@13
//  164 0x40,0x42,0xCC,0x00,0x50,0x4E,0xC8,0x48,0x7F,0xC8,0x48,0x48,0x40,0x00,
//  165 0x40,0x20,0x1F,0x20,0x48,0x46,0x41,0x40,0x40,0x47,0x48,0x48,0x4E,0x40,//@14
//  166 0x61,0x06,0xE0,0x18,0x84,0xE4,0x1C,0x84,0x65,0xBE,0x24,0xA4,0x64,0x04,
//  167 0x04,0xFF,0x00,0x01,0x00,0xFF,0x41,0x21,0x12,0x0C,0x1B,0x61,0xC0,0x40,//@15
//  168 0x00,0x00,0x00,0x7E,0x2A,0x2A,0x2A,0x2A,0x2A,0x2A,0x7E,0x00,0x00,0x00,
//  169 0x7F,0x25,0x25,0x25,0x25,0x7F,0x00,0x00,0x7F,0x25,0x25,0x25,0x25,0x7F,//@16
//  170 0x10,0x2C,0x24,0xA4,0x64,0x25,0x26,0x24,0x24,0xA4,0x24,0x34,0x2C,0x04,
//  171 0x40,0x48,0x49,0x49,0x49,0x49,0x7F,0x49,0x49,0x49,0x4B,0x48,0x40,0x40,//@17
//  172 0x21,0x86,0x70,0x00,0x7E,0x4A,0x4A,0x4A,0x4A,0x4A,0x7E,0x00,0x00,0x00,
//  173 0xFE,0x01,0x40,0x7F,0x41,0x41,0x7F,0x41,0x41,0x7F,0x41,0x41,0x7F,0x40,//@18
//  174 0x00,0xFC,0x04,0x24,0x24,0xFC,0xA5,0xA6,0xA4,0xFC,0x24,0x24,0x24,0x04,
//  175 0x60,0x1F,0x80,0x80,0x42,0x46,0x2A,0x12,0x12,0x2A,0x26,0x42,0xC0,0x40,//@19
//  176 0x10,0x10,0xFF,0x90,0x50,0x98,0x88,0x88,0xE9,0x8E,0x88,0x88,0x98,0x88,
//  177 0x42,0x81,0x7F,0x00,0x40,0x40,0x26,0x25,0x18,0x08,0x16,0x31,0x60,0x20,//@20
//  178 0x30,0xEF,0x28,0x28,0x44,0x64,0xDC,0x10,0x54,0xFF,0x54,0x54,0x7C,0x10,
//  179 0x01,0x7F,0x21,0x51,0x22,0x14,0x0F,0x14,0x25,0x3F,0x45,0x45,0x45,0x44,//@21
//  180 0x02,0x1C,0xC0,0x30,0x4C,0x30,0x0F,0x08,0xF8,0x08,0x08,0x28,0x18,0x08,
//  181 0x5E,0x43,0x20,0x20,0x10,0x08,0x04,0x03,0x01,0x06,0x08,0x30,0x60,0x20,//@22
//  182 0x00,0xF8,0x48,0x48,0x48,0x48,0xFF,0x48,0x48,0x48,0x48,0xF8,0x00,0x00,
//  183 0x00,0x0F,0x04,0x04,0x04,0x04,0x3F,0x44,0x44,0x44,0x44,0x4F,0x40,0x70,//@23
//  184 0x00,0xFE,0x02,0x42,0x42,0x42,0x42,0xFA,0x42,0x42,0x42,0x62,0x42,0x02,
//  185 0x18,0x27,0x20,0x20,0x20,0x20,0x20,0x3F,0x20,0x21,0x2E,0x24,0x20,0x20,//@24  
//  186 };
//  187 
//  188 //======================================================
//  189 // 128X64I@@@@@@[8X16]@@@
//  190 // @@@: powerint
//  191 // @  @: [8X16]@@@@@@@@@ (@@@@,@@@@)
//  192 // !"#$%&'()*+,-./0123456789:;<=>?@ABCDEFGHIJKLMNOPQRSTUVWXYZ[\]^_`abcdefghijklmnopqrstuvwxyz{|}~
//  193 //======================================================

        SECTION `.rodata`:CONST:REORDER:NOROOT(2)
        DATA
//  194 const unsigned char F8X16[]=
F8X16:
        DC8 0, 0, 0, 0, 0, 0, 0, 0, 0, 0, 0, 0, 0, 0, 0, 0, 0, 0, 0, 248, 0, 0
        DC8 0, 0, 0, 0, 0, 51, 48, 0, 0, 0, 0, 16, 12, 6, 16, 12, 6, 0, 0, 0, 0
        DC8 0, 0, 0, 0, 0, 64, 192, 120, 64, 192, 120, 64, 0, 4, 63, 4, 4, 63
        DC8 4, 4, 0, 0, 112, 136, 252, 8, 48, 0, 0, 0, 24, 32, 255, 33, 30, 0
        DC8 0, 240, 8, 240, 0, 224, 24, 0, 0, 0, 33, 28, 3, 30, 33, 30, 0, 0
        DC8 240, 8, 136, 112, 0, 0, 0, 30, 33, 35, 36, 25, 39, 33, 16, 16, 22
        DC8 14, 0, 0, 0, 0, 0, 0, 0, 0, 0, 0, 0, 0, 0, 0, 0, 0, 224, 24, 4, 2
        DC8 0, 0, 0, 0, 7, 24, 32, 64, 0, 0, 2, 4, 24, 224, 0, 0, 0, 0, 64, 32
        DC8 24, 7, 0, 0, 0, 64, 64, 128, 240, 128, 64, 64, 0, 2, 2, 1, 15, 1, 2
        DC8 2, 0, 0, 0, 0, 240, 0, 0, 0, 0, 1, 1, 1, 31, 1, 1, 1, 0, 0, 0, 0, 0
        DC8 0, 0, 0, 0, 128, 176, 112, 0, 0, 0, 0, 0, 0, 0, 0, 0, 0, 0, 0, 0, 0
        DC8 1, 1, 1, 1, 1, 1, 1, 0, 0, 0, 0, 0, 0, 0, 0, 0, 48, 48, 0, 0, 0, 0
        DC8 0, 0, 0, 0, 0, 128, 96, 24, 4, 0, 96, 24, 6, 1, 0, 0, 0, 0, 224, 16
        DC8 8, 8, 16, 224, 0, 0, 15, 16, 32, 32, 16, 15, 0, 0, 16, 16, 248, 0
        DC8 0, 0, 0, 0, 32, 32, 63, 32, 32, 0, 0, 0, 112, 8, 8, 8, 136, 112, 0
        DC8 0, 48, 40, 36, 34, 33, 48, 0, 0, 48, 8, 136, 136, 72, 48, 0, 0, 24
        DC8 32, 32, 32, 17, 14, 0, 0, 0, 192, 32, 16, 248, 0, 0, 0, 7, 4, 36
        DC8 36, 63, 36, 0, 0, 248, 8, 136, 136, 8, 8, 0, 0, 25, 33, 32, 32, 17
        DC8 14, 0, 0, 224, 16, 136, 136, 24, 0, 0, 0, 15, 17, 32, 32, 17, 14, 0
        DC8 0, 56, 8, 8, 200, 56, 8, 0, 0, 0, 0, 63, 0, 0, 0, 0, 0, 112, 136, 8
        DC8 8, 136, 112, 0, 0, 28, 34, 33, 33, 34, 28, 0, 0, 224, 16, 8, 8, 16
        DC8 224, 0, 0, 0, 49, 34, 34, 17, 15, 0, 0, 0, 0, 192, 192, 0, 0, 0, 0
        DC8 0, 0, 48, 48, 0, 0, 0, 0, 0, 0, 128, 0, 0, 0, 0, 0, 0, 128, 96, 0
        DC8 0, 0, 0, 0, 0, 128, 64, 32, 16, 8, 0, 0, 1, 2, 4, 8, 16, 32, 0, 64
        DC8 64, 64, 64, 64, 64, 64, 0, 4, 4, 4, 4, 4, 4, 4, 0, 0, 8, 16, 32, 64
        DC8 128, 0, 0, 0, 32, 16, 8, 4, 2, 1, 0, 0, 112, 72, 8, 8, 8, 240, 0, 0
        DC8 0, 0, 48, 54, 1, 0, 0, 192, 48, 200, 40, 232, 16, 224, 0, 7, 24, 39
        DC8 36, 35, 20, 11, 0, 0, 0, 192, 56, 224, 0, 0, 0, 32, 60, 35, 2, 2
        DC8 39, 56, 32, 8, 248, 136, 136, 136, 112, 0, 0, 32, 63, 32, 32, 32
        DC8 17, 14, 0, 192, 48, 8, 8, 8, 8, 56, 0, 7, 24, 32, 32, 32, 16, 8, 0
        DC8 8, 248, 8, 8, 8, 16, 224, 0, 32, 63, 32, 32, 32, 16, 15, 0, 8, 248
        DC8 136, 136, 232, 8, 16, 0, 32, 63, 32, 32, 35, 32, 24, 0, 8, 248, 136
        DC8 136, 232, 8, 16, 0, 32, 63, 32, 0, 3, 0, 0, 0, 192, 48, 8, 8, 8, 56
        DC8 0, 0, 7, 24, 32, 32, 34, 30, 2, 0, 8, 248, 8, 0, 0, 8, 248, 8, 32
        DC8 63, 33, 1, 1, 33, 63, 32, 0, 8, 8, 248, 8, 8, 0, 0, 0, 32, 32, 63
        DC8 32, 32, 0, 0, 0, 0, 8, 8, 248, 8, 8, 0, 192, 128, 128, 128, 127, 0
        DC8 0, 0, 8, 248, 136, 192, 40, 24, 8, 0, 32, 63, 32, 1, 38, 56, 32, 0
        DC8 8, 248, 8, 0, 0, 0, 0, 0, 32, 63, 32, 32, 32, 32, 48, 0, 8, 248
        DC8 248, 0, 248, 248, 8, 0, 32, 63, 0, 63, 0, 63, 32, 0, 8, 248, 48
        DC8 192, 0, 8, 248, 8, 32, 63, 32, 0, 7, 24, 63, 0, 224, 16, 8, 8, 8
        DC8 16, 224, 0, 15, 16, 32, 32, 32, 16, 15, 0, 8, 248, 8, 8, 8, 8, 240
        DC8 0, 32, 63, 33, 1, 1, 1, 0, 0, 224, 16, 8, 8, 8, 16, 224, 0, 15, 24
        DC8 36, 36, 56, 80, 79, 0, 8, 248, 136, 136, 136, 136, 112, 0, 32, 63
        DC8 32, 0, 3, 12, 48, 32, 0, 112, 136, 8, 8, 8, 56, 0, 0, 56, 32, 33
        DC8 33, 34, 28, 0, 24, 8, 8, 248, 8, 8, 24, 0, 0, 0, 32, 63, 32, 0, 0
        DC8 0, 8, 248, 8, 0, 0, 8, 248, 8, 0, 31, 32, 32, 32, 32, 31, 0, 8, 120
        DC8 136, 0, 0, 200, 56, 8, 0, 0, 7, 56, 14, 1, 0, 0, 248, 8, 0, 248, 0
        DC8 8, 248, 0, 3, 60, 7, 0, 7, 60, 3, 0, 8, 24, 104, 128, 128, 104, 24
        DC8 8, 32, 48, 44, 3, 3, 44, 48, 32, 8, 56, 200, 0, 200, 56, 8, 0, 0, 0
        DC8 32, 63, 32, 0, 0, 0, 16, 8, 8, 8, 200, 56, 8, 0, 32, 56, 38, 33, 32
        DC8 32, 24, 0, 0, 0, 0, 254, 2, 2, 2, 0, 0, 0, 0, 127, 64, 64, 64, 0, 0
        DC8 12, 48, 192, 0, 0, 0, 0, 0, 0, 0, 1, 6, 56, 192, 0, 0, 2, 2, 2, 254
        DC8 0, 0, 0, 0, 64, 64, 64, 127, 0, 0, 0, 0, 0, 4, 2, 2, 2, 4, 0, 0, 0
        DC8 0, 0, 0, 0, 0, 0, 0, 0, 0, 0, 0, 0, 0, 0, 128, 128, 128, 128, 128
        DC8 128, 128, 128, 0, 2, 2, 4, 0, 0, 0, 0, 0, 0, 0, 0, 0, 0, 0, 0, 0, 0
        DC8 128, 128, 128, 128, 0, 0, 0, 25, 36, 34, 34, 34, 63, 32, 8, 248, 0
        DC8 128, 128, 0, 0, 0, 0, 63, 17, 32, 32, 17, 14, 0, 0, 0, 0, 128, 128
        DC8 128, 0, 0, 0, 14, 17, 32, 32, 32, 17, 0, 0, 0, 0, 128, 128, 136
        DC8 248, 0, 0, 14, 17, 32, 32, 16, 63, 32, 0, 0, 128, 128, 128, 128, 0
        DC8 0, 0, 31, 34, 34, 34, 34, 19, 0, 0, 128, 128, 240, 136, 136, 136
        DC8 24, 0, 32, 32, 63, 32, 32, 0, 0, 0, 0, 128, 128, 128, 128, 128, 0
        DC8 0, 107, 148, 148, 148, 147, 96, 0, 8, 248, 0, 128, 128, 128, 0, 0
        DC8 32, 63, 33, 0, 0, 32, 63, 32, 0, 128, 152, 152, 0, 0, 0, 0, 0, 32
        DC8 32, 63, 32, 32, 0, 0, 0, 0, 0, 128, 152, 152, 0, 0, 0, 192, 128
        DC8 128, 128, 127, 0, 0, 8, 248, 0, 0, 128, 128, 128, 0, 32, 63, 36, 2
        DC8 45, 48, 32, 0, 0, 8, 8, 248, 0, 0, 0, 0, 0, 32, 32, 63, 32, 32, 0
        DC8 0, 128, 128, 128, 128, 128, 128, 128, 0, 32, 63, 32, 0, 63, 32, 0
        DC8 63, 128, 128, 0, 128, 128, 128, 0, 0, 32, 63, 33, 0, 0, 32, 63, 32
        DC8 0, 0, 128, 128, 128, 128, 0, 0, 0, 31, 32, 32, 32, 32, 31, 0, 128
        DC8 128, 0, 128, 128, 0, 0, 0, 128, 255, 161, 32, 32, 17, 14, 0, 0, 0
        DC8 0, 128, 128, 128, 128, 0, 0, 14, 17, 32, 32, 160, 255, 128, 128
        DC8 128, 128, 0, 128, 128, 128, 0, 32, 32, 63, 33, 32, 0, 1, 0, 0, 0
        DC8 128, 128, 128, 128, 128, 0, 0, 51, 36, 36, 36, 36, 25, 0, 0, 128
        DC8 128, 224, 128, 128, 0, 0, 0, 0, 0, 31, 32, 32, 0, 0, 128, 128, 0, 0
        DC8 0, 128, 128, 0, 0, 31, 32, 32, 32, 16, 63, 32, 128, 128, 128, 0, 0
        DC8 128, 128, 128, 0, 1, 14, 48, 8, 6, 1, 0, 128, 128, 0, 128, 0, 128
        DC8 128, 128, 15, 48, 12, 3, 12, 48, 15, 0, 0, 128, 128, 0, 128, 128
        DC8 128, 0, 0, 32, 49, 46, 14, 49, 32, 0, 128, 128, 128, 0, 0, 128, 128
        DC8 128, 128, 129, 142, 112, 24, 6, 1, 0, 0, 128, 128, 128, 128, 128
        DC8 128, 0, 0, 33, 48, 44, 34, 33, 48, 0, 0, 0, 0, 0, 128, 124, 2, 2, 0
        DC8 0, 0, 0, 0, 63, 64, 64, 0, 0, 0, 0, 255, 0, 0, 0, 0, 0, 0, 0, 255
        DC8 0, 0, 0, 0, 2, 2, 124, 128, 0, 0, 0, 0, 64, 64, 63, 0, 0, 0, 0, 0
        DC8 6, 1, 1, 2, 2, 4, 4, 0, 0, 0, 0, 0, 0, 0, 0
//  195 {
//  196 	0x00,0x00,0x00,0x00,0x00,0x00,0x00,0x00,0x00,0x00,0x00,0x00,0x00,0x00,0x00,0x00,// 0
//  197   0x00,0x00,0x00,0xF8,0x00,0x00,0x00,0x00,0x00,0x00,0x00,0x33,0x30,0x00,0x00,0x00,//!1
//  198   0x00,0x10,0x0C,0x06,0x10,0x0C,0x06,0x00,0x00,0x00,0x00,0x00,0x00,0x00,0x00,0x00,//"2
//  199   0x40,0xC0,0x78,0x40,0xC0,0x78,0x40,0x00,0x04,0x3F,0x04,0x04,0x3F,0x04,0x04,0x00,//#3
//  200   0x00,0x70,0x88,0xFC,0x08,0x30,0x00,0x00,0x00,0x18,0x20,0xFF,0x21,0x1E,0x00,0x00,//$4
//  201   0xF0,0x08,0xF0,0x00,0xE0,0x18,0x00,0x00,0x00,0x21,0x1C,0x03,0x1E,0x21,0x1E,0x00,//%5
//  202   0x00,0xF0,0x08,0x88,0x70,0x00,0x00,0x00,0x1E,0x21,0x23,0x24,0x19,0x27,0x21,0x10,//&6
//  203   0x10,0x16,0x0E,0x00,0x00,0x00,0x00,0x00,0x00,0x00,0x00,0x00,0x00,0x00,0x00,0x00,//'7
//  204   0x00,0x00,0x00,0xE0,0x18,0x04,0x02,0x00,0x00,0x00,0x00,0x07,0x18,0x20,0x40,0x00,//(8
//  205   0x00,0x02,0x04,0x18,0xE0,0x00,0x00,0x00,0x00,0x40,0x20,0x18,0x07,0x00,0x00,0x00,//)9
//  206   0x40,0x40,0x80,0xF0,0x80,0x40,0x40,0x00,0x02,0x02,0x01,0x0F,0x01,0x02,0x02,0x00,//*10
//  207   0x00,0x00,0x00,0xF0,0x00,0x00,0x00,0x00,0x01,0x01,0x01,0x1F,0x01,0x01,0x01,0x00,//+11
//  208   0x00,0x00,0x00,0x00,0x00,0x00,0x00,0x00,0x80,0xB0,0x70,0x00,0x00,0x00,0x00,0x00,//,12
//  209   0x00,0x00,0x00,0x00,0x00,0x00,0x00,0x00,0x00,0x01,0x01,0x01,0x01,0x01,0x01,0x01,//-13
//  210   0x00,0x00,0x00,0x00,0x00,0x00,0x00,0x00,0x00,0x30,0x30,0x00,0x00,0x00,0x00,0x00,//.14
//  211   0x00,0x00,0x00,0x00,0x80,0x60,0x18,0x04,0x00,0x60,0x18,0x06,0x01,0x00,0x00,0x00,///15
//  212   0x00,0xE0,0x10,0x08,0x08,0x10,0xE0,0x00,0x00,0x0F,0x10,0x20,0x20,0x10,0x0F,0x00,//016
//  213   0x00,0x10,0x10,0xF8,0x00,0x00,0x00,0x00,0x00,0x20,0x20,0x3F,0x20,0x20,0x00,0x00,//117
//  214   0x00,0x70,0x08,0x08,0x08,0x88,0x70,0x00,0x00,0x30,0x28,0x24,0x22,0x21,0x30,0x00,//218
//  215   0x00,0x30,0x08,0x88,0x88,0x48,0x30,0x00,0x00,0x18,0x20,0x20,0x20,0x11,0x0E,0x00,//319
//  216   0x00,0x00,0xC0,0x20,0x10,0xF8,0x00,0x00,0x00,0x07,0x04,0x24,0x24,0x3F,0x24,0x00,//420
//  217   0x00,0xF8,0x08,0x88,0x88,0x08,0x08,0x00,0x00,0x19,0x21,0x20,0x20,0x11,0x0E,0x00,//521
//  218   0x00,0xE0,0x10,0x88,0x88,0x18,0x00,0x00,0x00,0x0F,0x11,0x20,0x20,0x11,0x0E,0x00,//622
//  219   0x00,0x38,0x08,0x08,0xC8,0x38,0x08,0x00,0x00,0x00,0x00,0x3F,0x00,0x00,0x00,0x00,//723
//  220   0x00,0x70,0x88,0x08,0x08,0x88,0x70,0x00,0x00,0x1C,0x22,0x21,0x21,0x22,0x1C,0x00,//824
//  221   0x00,0xE0,0x10,0x08,0x08,0x10,0xE0,0x00,0x00,0x00,0x31,0x22,0x22,0x11,0x0F,0x00,//925
//  222   0x00,0x00,0x00,0xC0,0xC0,0x00,0x00,0x00,0x00,0x00,0x00,0x30,0x30,0x00,0x00,0x00,//:26
//  223   0x00,0x00,0x00,0x80,0x00,0x00,0x00,0x00,0x00,0x00,0x80,0x60,0x00,0x00,0x00,0x00,//;27
//  224   0x00,0x00,0x80,0x40,0x20,0x10,0x08,0x00,0x00,0x01,0x02,0x04,0x08,0x10,0x20,0x00,//<28
//  225   0x40,0x40,0x40,0x40,0x40,0x40,0x40,0x00,0x04,0x04,0x04,0x04,0x04,0x04,0x04,0x00,//=29
//  226   0x00,0x08,0x10,0x20,0x40,0x80,0x00,0x00,0x00,0x20,0x10,0x08,0x04,0x02,0x01,0x00,//>30
//  227   0x00,0x70,0x48,0x08,0x08,0x08,0xF0,0x00,0x00,0x00,0x00,0x30,0x36,0x01,0x00,0x00,//?31
//  228   0xC0,0x30,0xC8,0x28,0xE8,0x10,0xE0,0x00,0x07,0x18,0x27,0x24,0x23,0x14,0x0B,0x00,//@32
//  229   0x00,0x00,0xC0,0x38,0xE0,0x00,0x00,0x00,0x20,0x3C,0x23,0x02,0x02,0x27,0x38,0x20,//A33
//  230   0x08,0xF8,0x88,0x88,0x88,0x70,0x00,0x00,0x20,0x3F,0x20,0x20,0x20,0x11,0x0E,0x00,//B34
//  231   0xC0,0x30,0x08,0x08,0x08,0x08,0x38,0x00,0x07,0x18,0x20,0x20,0x20,0x10,0x08,0x00,//C35
//  232   0x08,0xF8,0x08,0x08,0x08,0x10,0xE0,0x00,0x20,0x3F,0x20,0x20,0x20,0x10,0x0F,0x00,//D36
//  233   0x08,0xF8,0x88,0x88,0xE8,0x08,0x10,0x00,0x20,0x3F,0x20,0x20,0x23,0x20,0x18,0x00,//E37
//  234   0x08,0xF8,0x88,0x88,0xE8,0x08,0x10,0x00,0x20,0x3F,0x20,0x00,0x03,0x00,0x00,0x00,//F38
//  235   0xC0,0x30,0x08,0x08,0x08,0x38,0x00,0x00,0x07,0x18,0x20,0x20,0x22,0x1E,0x02,0x00,//G39
//  236   0x08,0xF8,0x08,0x00,0x00,0x08,0xF8,0x08,0x20,0x3F,0x21,0x01,0x01,0x21,0x3F,0x20,//H40
//  237   0x00,0x08,0x08,0xF8,0x08,0x08,0x00,0x00,0x00,0x20,0x20,0x3F,0x20,0x20,0x00,0x00,//I41
//  238   0x00,0x00,0x08,0x08,0xF8,0x08,0x08,0x00,0xC0,0x80,0x80,0x80,0x7F,0x00,0x00,0x00,//J42
//  239   0x08,0xF8,0x88,0xC0,0x28,0x18,0x08,0x00,0x20,0x3F,0x20,0x01,0x26,0x38,0x20,0x00,//K43
//  240   0x08,0xF8,0x08,0x00,0x00,0x00,0x00,0x00,0x20,0x3F,0x20,0x20,0x20,0x20,0x30,0x00,//L44
//  241   0x08,0xF8,0xF8,0x00,0xF8,0xF8,0x08,0x00,0x20,0x3F,0x00,0x3F,0x00,0x3F,0x20,0x00,//M45
//  242   0x08,0xF8,0x30,0xC0,0x00,0x08,0xF8,0x08,0x20,0x3F,0x20,0x00,0x07,0x18,0x3F,0x00,//N46
//  243   0xE0,0x10,0x08,0x08,0x08,0x10,0xE0,0x00,0x0F,0x10,0x20,0x20,0x20,0x10,0x0F,0x00,//O47
//  244   0x08,0xF8,0x08,0x08,0x08,0x08,0xF0,0x00,0x20,0x3F,0x21,0x01,0x01,0x01,0x00,0x00,//P48
//  245   0xE0,0x10,0x08,0x08,0x08,0x10,0xE0,0x00,0x0F,0x18,0x24,0x24,0x38,0x50,0x4F,0x00,//Q49
//  246   0x08,0xF8,0x88,0x88,0x88,0x88,0x70,0x00,0x20,0x3F,0x20,0x00,0x03,0x0C,0x30,0x20,//R50
//  247   0x00,0x70,0x88,0x08,0x08,0x08,0x38,0x00,0x00,0x38,0x20,0x21,0x21,0x22,0x1C,0x00,//S51
//  248   0x18,0x08,0x08,0xF8,0x08,0x08,0x18,0x00,0x00,0x00,0x20,0x3F,0x20,0x00,0x00,0x00,//T52
//  249   0x08,0xF8,0x08,0x00,0x00,0x08,0xF8,0x08,0x00,0x1F,0x20,0x20,0x20,0x20,0x1F,0x00,//U53
//  250   0x08,0x78,0x88,0x00,0x00,0xC8,0x38,0x08,0x00,0x00,0x07,0x38,0x0E,0x01,0x00,0x00,//V54
//  251   0xF8,0x08,0x00,0xF8,0x00,0x08,0xF8,0x00,0x03,0x3C,0x07,0x00,0x07,0x3C,0x03,0x00,//W55
//  252   0x08,0x18,0x68,0x80,0x80,0x68,0x18,0x08,0x20,0x30,0x2C,0x03,0x03,0x2C,0x30,0x20,//X56
//  253   0x08,0x38,0xC8,0x00,0xC8,0x38,0x08,0x00,0x00,0x00,0x20,0x3F,0x20,0x00,0x00,0x00,//Y57
//  254   0x10,0x08,0x08,0x08,0xC8,0x38,0x08,0x00,0x20,0x38,0x26,0x21,0x20,0x20,0x18,0x00,//Z58
//  255   0x00,0x00,0x00,0xFE,0x02,0x02,0x02,0x00,0x00,0x00,0x00,0x7F,0x40,0x40,0x40,0x00,//[59
//  256   0x00,0x0C,0x30,0xC0,0x00,0x00,0x00,0x00,0x00,0x00,0x00,0x01,0x06,0x38,0xC0,0x00,//\60
//  257   0x00,0x02,0x02,0x02,0xFE,0x00,0x00,0x00,0x00,0x40,0x40,0x40,0x7F,0x00,0x00,0x00,//]61
//  258   0x00,0x00,0x04,0x02,0x02,0x02,0x04,0x00,0x00,0x00,0x00,0x00,0x00,0x00,0x00,0x00,//^62
//  259   0x00,0x00,0x00,0x00,0x00,0x00,0x00,0x00,0x80,0x80,0x80,0x80,0x80,0x80,0x80,0x80,//_63
//  260   0x00,0x02,0x02,0x04,0x00,0x00,0x00,0x00,0x00,0x00,0x00,0x00,0x00,0x00,0x00,0x00,//`64
//  261   0x00,0x00,0x80,0x80,0x80,0x80,0x00,0x00,0x00,0x19,0x24,0x22,0x22,0x22,0x3F,0x20,//a65
//  262   0x08,0xF8,0x00,0x80,0x80,0x00,0x00,0x00,0x00,0x3F,0x11,0x20,0x20,0x11,0x0E,0x00,//b66
//  263   0x00,0x00,0x00,0x80,0x80,0x80,0x00,0x00,0x00,0x0E,0x11,0x20,0x20,0x20,0x11,0x00,//c67
//  264   0x00,0x00,0x00,0x80,0x80,0x88,0xF8,0x00,0x00,0x0E,0x11,0x20,0x20,0x10,0x3F,0x20,//d68
//  265   0x00,0x00,0x80,0x80,0x80,0x80,0x00,0x00,0x00,0x1F,0x22,0x22,0x22,0x22,0x13,0x00,//e69
//  266   0x00,0x80,0x80,0xF0,0x88,0x88,0x88,0x18,0x00,0x20,0x20,0x3F,0x20,0x20,0x00,0x00,//f70
//  267   0x00,0x00,0x80,0x80,0x80,0x80,0x80,0x00,0x00,0x6B,0x94,0x94,0x94,0x93,0x60,0x00,//g71
//  268   0x08,0xF8,0x00,0x80,0x80,0x80,0x00,0x00,0x20,0x3F,0x21,0x00,0x00,0x20,0x3F,0x20,//h72
//  269   0x00,0x80,0x98,0x98,0x00,0x00,0x00,0x00,0x00,0x20,0x20,0x3F,0x20,0x20,0x00,0x00,//i73
//  270   0x00,0x00,0x00,0x80,0x98,0x98,0x00,0x00,0x00,0xC0,0x80,0x80,0x80,0x7F,0x00,0x00,//j74
//  271   0x08,0xF8,0x00,0x00,0x80,0x80,0x80,0x00,0x20,0x3F,0x24,0x02,0x2D,0x30,0x20,0x00,//k75
//  272   0x00,0x08,0x08,0xF8,0x00,0x00,0x00,0x00,0x00,0x20,0x20,0x3F,0x20,0x20,0x00,0x00,//l76
//  273   0x80,0x80,0x80,0x80,0x80,0x80,0x80,0x00,0x20,0x3F,0x20,0x00,0x3F,0x20,0x00,0x3F,//m77
//  274   0x80,0x80,0x00,0x80,0x80,0x80,0x00,0x00,0x20,0x3F,0x21,0x00,0x00,0x20,0x3F,0x20,//n78
//  275   0x00,0x00,0x80,0x80,0x80,0x80,0x00,0x00,0x00,0x1F,0x20,0x20,0x20,0x20,0x1F,0x00,//o79
//  276   0x80,0x80,0x00,0x80,0x80,0x00,0x00,0x00,0x80,0xFF,0xA1,0x20,0x20,0x11,0x0E,0x00,//p80
//  277   0x00,0x00,0x00,0x80,0x80,0x80,0x80,0x00,0x00,0x0E,0x11,0x20,0x20,0xA0,0xFF,0x80,//q81
//  278   0x80,0x80,0x80,0x00,0x80,0x80,0x80,0x00,0x20,0x20,0x3F,0x21,0x20,0x00,0x01,0x00,//r82
//  279   0x00,0x00,0x80,0x80,0x80,0x80,0x80,0x00,0x00,0x33,0x24,0x24,0x24,0x24,0x19,0x00,//s83
//  280   0x00,0x80,0x80,0xE0,0x80,0x80,0x00,0x00,0x00,0x00,0x00,0x1F,0x20,0x20,0x00,0x00,//t84
//  281   0x80,0x80,0x00,0x00,0x00,0x80,0x80,0x00,0x00,0x1F,0x20,0x20,0x20,0x10,0x3F,0x20,//u85
//  282   0x80,0x80,0x80,0x00,0x00,0x80,0x80,0x80,0x00,0x01,0x0E,0x30,0x08,0x06,0x01,0x00,//v86
//  283   0x80,0x80,0x00,0x80,0x00,0x80,0x80,0x80,0x0F,0x30,0x0C,0x03,0x0C,0x30,0x0F,0x00,//w87
//  284   0x00,0x80,0x80,0x00,0x80,0x80,0x80,0x00,0x00,0x20,0x31,0x2E,0x0E,0x31,0x20,0x00,//x88
//  285   0x80,0x80,0x80,0x00,0x00,0x80,0x80,0x80,0x80,0x81,0x8E,0x70,0x18,0x06,0x01,0x00,//y89
//  286   0x00,0x80,0x80,0x80,0x80,0x80,0x80,0x00,0x00,0x21,0x30,0x2C,0x22,0x21,0x30,0x00,//z90
//  287   0x00,0x00,0x00,0x00,0x80,0x7C,0x02,0x02,0x00,0x00,0x00,0x00,0x00,0x3F,0x40,0x40,//{91
//  288   0x00,0x00,0x00,0x00,0xFF,0x00,0x00,0x00,0x00,0x00,0x00,0x00,0xFF,0x00,0x00,0x00,//|92
//  289   0x00,0x02,0x02,0x7C,0x80,0x00,0x00,0x00,0x00,0x40,0x40,0x3F,0x00,0x00,0x00,0x00,//}93
//  290   0x00,0x06,0x01,0x01,0x02,0x02,0x04,0x04,0x00,0x00,0x00,0x00,0x00,0x00,0x00,0x00,//~94
//  291 
//  292 };
//  293 //@@@@@@@@@

        SECTION `.data`:DATA:REORDER:NOROOT(2)
        DATA
//  294 unsigned char longqiu96x64[768] = {
longqiu96x64:
        DC8 0, 0, 0, 0, 0, 0, 0, 0, 0, 0, 0, 0, 0, 0, 0, 0, 0, 0, 128, 128, 192
        DC8 192, 192, 96, 96, 96, 48, 48, 48, 56, 24, 24, 24, 24, 12, 12, 12
        DC8 12, 12, 14, 14, 14, 6, 6, 6, 6, 6, 6, 6, 6, 6, 6, 6, 6, 6, 14, 14
        DC8 12, 12, 12, 12, 12, 28, 24, 24, 24, 24, 48, 48, 48, 112, 96, 96
        DC8 224, 192, 192, 128, 128, 0, 0, 0, 0, 0, 0, 0, 0, 0, 0, 0, 0, 0, 0
        DC8 0, 0, 0, 0, 0, 0, 0, 0, 0, 0, 0, 128, 192, 224, 112, 48, 56, 28, 12
        DC8 6, 7, 3, 3, 1, 1, 0, 0, 0, 0, 0, 0, 0, 0, 0, 0, 0, 0, 0, 0, 0, 0, 0
        DC8 128, 128, 128, 0, 0, 0, 0, 0, 128, 128, 240, 248, 248, 240, 128, 0
        DC8 0, 128, 224, 240, 248, 252, 60, 28, 12, 12, 28, 252, 248, 240, 224
        DC8 128, 0, 0, 0, 192, 192, 193, 1, 3, 3, 7, 6, 14, 12, 24, 56, 112, 96
        DC8 192, 128, 128, 0, 0, 0, 0, 0, 0, 0, 0, 192, 240, 120, 30, 7, 51, 49
        DC8 56, 120, 252, 254, 246, 192, 128, 0, 0, 0, 0, 192, 192, 128, 0, 248
        DC8 252, 222, 14, 15, 30, 190, 252, 240, 6, 255, 255, 255, 255, 3, 7
        DC8 255, 255, 254, 128, 30, 63, 255, 255, 249, 249, 255, 255, 127, 31
        DC8 14, 127, 255, 255, 255, 193, 128, 206, 206, 198, 192, 255, 255, 255
        DC8 255, 63, 128, 252, 252, 253, 125, 1, 192, 248, 248, 240, 112, 0
        DC8 192, 128, 128, 128, 0, 0, 1, 7, 14, 60, 248, 224, 128, 0, 0, 254
        DC8 255, 3, 0, 0, 0, 0, 0, 0, 0, 1, 3, 15, 31, 127, 254, 252, 240, 240
        DC8 240, 127, 127, 62, 16, 3, 3, 15, 31, 31, 15, 15, 3, 4, 7, 7, 7, 7
        DC8 6, 0, 7, 7, 7, 15, 30, 63, 127, 127, 127, 121, 115, 63, 63, 31, 14
        DC8 0, 1, 3, 3, 7, 7, 6, 14, 15, 15, 31, 63, 61, 8, 12, 31, 31, 31, 25
        DC8 60, 127, 127, 127, 243, 240, 252, 254, 63, 31, 7, 1, 0, 0, 0, 0, 0
        DC8 0, 0, 207, 255, 112, 0, 3, 31, 126, 240, 192, 0, 0, 0, 0, 0, 0, 0
        DC8 0, 0, 0, 3, 3, 1, 1, 0, 0, 0, 0, 192, 192, 64, 64, 64, 64, 248, 120
        DC8 64, 192, 64, 88, 88, 64, 64, 64, 0, 0, 0, 0, 0, 128, 128, 128, 0, 0
        DC8 0, 0, 0, 0, 96, 240, 224, 32, 32, 32, 32, 48, 48, 56, 24, 16, 0, 0
        DC8 0, 0, 0, 0, 0, 0, 0, 0, 0, 0, 0, 1, 1, 1, 0, 0, 0, 0, 0, 0, 0, 0
        DC8 128, 224, 248, 63, 15, 0, 0, 0, 0, 0, 0, 3, 7, 14, 28, 56, 48, 96
        DC8 224, 192, 128, 0, 0, 0, 0, 0, 0, 0, 64, 96, 96, 112, 48, 24, 12, 7
        DC8 17, 8, 63, 125, 102, 231, 227, 192, 192, 192, 224, 96, 0, 0, 0, 3
        DC8 3, 3, 0, 0, 96, 96, 96, 96, 96, 127, 127, 97, 97, 97, 97, 127, 127
        DC8 97, 97, 225, 224, 224, 192, 192, 0, 0, 0, 0, 0, 0, 0, 0, 0, 0, 0
        DC8 128, 192, 192, 224, 112, 56, 24, 12, 7, 3, 1, 0, 0, 0, 0, 0, 0, 0
        DC8 0, 0, 0, 0, 0, 0, 0, 0, 0, 0, 1, 1, 3, 3, 6, 6, 12, 12, 24, 24, 56
        DC8 48, 48, 112, 96, 96, 224, 192, 192, 192, 192, 192, 128, 128, 128
        DC8 129, 128, 128, 128, 128, 128, 0, 0, 0, 0, 0, 0, 0, 0, 128, 128, 128
        DC8 128, 128, 128, 128, 128, 128, 128, 192, 192, 192, 192, 192, 96, 96
        DC8 96, 48, 48, 48, 24, 24, 28, 12, 14, 6, 7, 3, 3, 1, 0, 0, 0, 0, 0, 0
        DC8 0, 0, 0, 0, 0, 0, 0, 0, 0, 0, 0, 0, 0, 0, 0, 0, 0, 0, 0, 0, 0, 0, 0
        DC8 0, 0, 0, 0, 0, 0, 0, 0, 0, 0, 0, 0, 0, 0, 0, 0, 0, 0, 1, 1, 1, 1, 1
        DC8 1, 1, 3, 3, 3, 3, 3, 3, 3, 3, 3, 3, 3, 3, 3, 3, 1, 1, 1, 1, 1, 1, 1
        DC8 0, 0, 0, 0, 0, 0, 0, 0, 0, 0, 0, 0, 0, 0, 0, 0, 0, 0, 0, 0, 0, 0, 0
        DC8 0, 0, 0, 0, 0, 0, 0, 0, 0, 0, 0
//  295 /* 
//  296   0X00,0X00,0X00,0X00,0X00,0X00,0X00,0X00,0X00,0X00,0X00,0X00,0X00,0X00,0X00,0X00,
//  297   0X00,0X00,0X00,0X00,0X00,0X00,0X00,0X00,0X00,0X00,0X80,0X80,0X80,0XC0,0XC0,0XC0,
//  298   0XC0,0XC0,0X60,0X60,0X60,0X60,0X60,0X70,0X70,0X70,0X30,0X30,0X30,0X30,0X30,0X30,
//  299   0X30,0X30,0X30,0X30,0X30,0X30,0X30,0X70,0X70,0X60,0X60,0X60,0X60,0X60,0XE0,0XC0,
//  300   0XC0,0XC0,0XC0,0X80,0X80,0X80,0X80,0X00,0X00,0X00,0X00,0X00,0X00,0X00,0X00,0X00,
//  301   0X00,0X00,0X00,0X00,0X00,0X00,0X00,0X00,0X00,0X00,0X00,0X00,0X00,0X00,0X00,0X00,
//  302   0X00,0X00,0X00,0X00,0X00,0X00,0X00,0X00,0X00,0X00,0X80,0X80,0XC0,0XE0,0X60,0X30,
//  303   0X38,0X18,0X1C,0X0C,0X0E,0X06,0X06,0X03,0X03,0X03,0X01,0X01,0X01,0X01,0X00,0X00,
//  304   0X00,0X00,0X00,0X00,0X00,0X00,0X00,0X00,0X00,0X00,0X00,0X00,0X00,0X00,0X00,0X00,
//  305   0X80,0XC0,0XC0,0X80,0X00,0X00,0X00,0X00,0X00,0X80,0XC0,0XE0,0XE0,0XE0,0X60,0X60,
//  306   0XE0,0XE0,0XC0,0X81,0X01,0X01,0X03,0X03,0X03,0X07,0X06,0X0E,0X0C,0X1C,0X18,0X38,
//  307   0X30,0X70,0X60,0XC0,0XC0,0X80,0X00,0X00,0X00,0X00,0X00,0X00,0X00,0X00,0X00,0X00,
//  308   0X00,0X00,0X00,0X80,0XC0,0XF0,0X38,0X9C,0X8E,0XC7,0XC3,0XE1,0XF1,0XB0,0X00,0X00,
//  309   0X00,0X00,0X00,0X00,0X00,0X00,0X00,0X00,0XC0,0XE0,0XF0,0X70,0X78,0XF0,0XF0,0XE0,
//  310   0X80,0X30,0XF8,0XF8,0XF8,0XF8,0X1C,0X3C,0XFC,0XF8,0XF0,0X00,0XF0,0XF8,0XFC,0XFC,
//  311   0XCF,0XCF,0XFF,0XFF,0XFC,0XF8,0X70,0XFC,0XFF,0XFF,0XFF,0X0F,0X01,0X70,0X70,0X30,
//  312   0X00,0XFF,0XFF,0XFF,0XFF,0XFC,0X00,0XE0,0XE0,0XEE,0XEE,0X0E,0X00,0XC0,0XC0,0X80,
//  313   0X80,0X00,0X00,0X00,0X01,0X03,0X03,0X06,0X0C,0X3C,0X70,0XE0,0XC0,0X00,0X00,0X00,
//  314   0X00,0XF0,0XFE,0X1F,0X03,0X00,0X00,0X01,0X01,0X01,0X03,0X0F,0X1F,0X7F,0XFE,0XFC,
//  315   0XF0,0XE0,0X80,0X80,0X86,0XFE,0XFC,0XF0,0X87,0X1F,0X1E,0X78,0XF8,0XF8,0X7D,0X7F,
//  316   0X1F,0X20,0X3F,0X3F,0X3F,0X3F,0X30,0X00,0X3F,0X3F,0X3F,0X7C,0XF0,0XF9,0XFF,0XFF,
//  317   0XFF,0XCF,0X9F,0XFF,0XFB,0XF8,0X70,0X03,0X0F,0X1F,0X1F,0X3E,0X3C,0X36,0X76,0X7E,
//  318   0X7E,0XFF,0XFF,0XEF,0X47,0X61,0XFC,0XFF,0XFF,0XCF,0XE3,0XF8,0XFE,0XFF,0X9F,0X87,
//  319   0XE3,0XF0,0XFE,0XFC,0X3C,0X0C,0X00,0X00,0X00,0X00,0X00,0X01,0X07,0X7F,0XFC,0X80,
//  320   0X00,0X1F,0XFF,0XF0,0X80,0X00,0X00,0X00,0X00,0X00,0X00,0X00,0X00,0X00,0X00,0X03,
//  321   0X1F,0X1F,0X0F,0X0F,0X07,0X03,0X03,0X01,0X00,0X00,0X00,0X00,0X00,0X00,0XC0,0XC0,
//  322   0X00,0X00,0X00,0XC0,0XC0,0X00,0X00,0X00,0X00,0X00,0X00,0X00,0X00,0X01,0X03,0X03,
//  323   0X03,0X03,0X03,0X01,0X01,0X00,0X00,0X80,0X00,0X00,0X00,0X00,0X00,0X80,0X80,0XC0,
//  324   0XC0,0X80,0X01,0X01,0X00,0X00,0X00,0X00,0X00,0X00,0X01,0X03,0X03,0X03,0X07,0X0F,
//  325   0X0F,0X0F,0X01,0X00,0X00,0X00,0X00,0X00,0X00,0X00,0X00,0X00,0XC0,0XFE,0X7F,0X03,
//  326   0X00,0X00,0X00,0X03,0X07,0X1E,0X38,0X70,0XE0,0XC0,0X80,0X00,0X00,0X00,0X00,0X00,
//  327   0X00,0X00,0X00,0X00,0X00,0X00,0X00,0X00,0X06,0X86,0X82,0XC2,0X62,0X3A,0X8F,0X43,
//  328   0XFA,0XEE,0X32,0X3A,0X1A,0X02,0X02,0X02,0X00,0X00,0X00,0X00,0X00,0X1C,0X1C,0X1C,
//  329   0X00,0X00,0X00,0X00,0X00,0X00,0X03,0XFF,0XFF,0X09,0X09,0X09,0X09,0XF9,0XF9,0X09,
//  330   0X08,0X08,0X00,0X00,0X00,0X00,0X00,0X00,0X00,0X00,0X00,0X00,0X00,0X00,0X00,0X00,
//  331   0X00,0X00,0X00,0X00,0X00,0X80,0XC0,0XC0,0X60,0X38,0X1C,0X0F,0X07,0X01,0X00,0X00,
//  332   0X00,0X00,0X00,0X00,0X00,0X00,0X00,0X00,0X00,0X01,0X01,0X03,0X07,0X0E,0X0C,0X18,
//  333   0X18,0X30,0X30,0X60,0X60,0XC0,0XC2,0XC3,0X83,0X83,0X81,0X00,0X00,0X00,0X00,0X00,
//  334   0X01,0X03,0X03,0X07,0X07,0X06,0X0E,0X06,0X07,0X03,0X00,0X00,0X00,0X00,0X00,0X00,
//  335   0X00,0X00,0X03,0X03,0X03,0X03,0X03,0X03,0X03,0X03,0X03,0X03,0X03,0X03,0X03,0X03,
//  336   0X03,0X07,0X07,0X07,0X06,0X06,0X80,0X80,0X80,0XC0,0XC0,0XE0,0X60,0X70,0X30,0X38,
//  337   0X18,0X1C,0X0E,0X06,0X07,0X03,0X01,0X00,0X00,0X00,0X00,0X00,0X00,0X00,0X00,0X00,
//  338   0X00,0X00,0X00,0X00,0X00,0X00,0X00,0X00,0X00,0X00,0X00,0X00,0X00,0X00,0X00,0X00,
//  339   0X00,0X00,0X00,0X00,0X00,0X00,0X00,0X01,0X01,0X01,0X03,0X03,0X03,0X07,0X06,0X06,
//  340   0X06,0X06,0X0E,0X0C,0X0C,0X0C,0X0C,0X0C,0X0C,0X1C,0X1C,0X1C,0X18,0X18,0X18,0X18,
//  341   0X18,0X18,0X18,0X18,0X1C,0X1C,0X1C,0X0C,0X0C,0X0C,0X0C,0X0C,0X0C,0X0C,0X06,0X06,
//  342   0X06,0X06,0X06,0X03,0X03,0X03,0X01,0X01,0X01,0X00,0X00,0X00,0X00,0X00,0X00,0X00,
//  343   0X00,0X00,0X00,0X00,0X00,0X00,0X00,0X00,0X00,0X00,0X00,0X00,0X00,0X00,0X00,0X00,
//  344 */
//  345 0X00,0X00,0X00,0X00,0X00,0X00,0X00,0X00,0X00,0X00,0X00,0X00,0X00,0X00,0X00,0X00,
//  346 0X00,0X00,0X80,0X80,0XC0,0XC0,0XC0,0X60,0X60,0X60,0X30,0X30,0X30,0X38,0X18,0X18,
//  347 0X18,0X18,0X0C,0X0C,0X0C,0X0C,0X0C,0X0E,0X0E,0X0E,0X06,0X06,0X06,0X06,0X06,0X06,
//  348 0X06,0X06,0X06,0X06,0X06,0X06,0X06,0X0E,0X0E,0X0C,0X0C,0X0C,0X0C,0X0C,0X1C,0X18,
//  349 0X18,0X18,0X18,0X30,0X30,0X30,0X70,0X60,0X60,0XE0,0XC0,0XC0,0X80,0X80,0X00,0X00,
//  350 0X00,0X00,0X00,0X00,0X00,0X00,0X00,0X00,0X00,0X00,0X00,0X00,0X00,0X00,0X00,0X00,
//  351 0X00,0X00,0X00,0X00,0X00,0X00,0X00,0X80,0XC0,0XE0,0X70,0X30,0X38,0X1C,0X0C,0X06,
//  352 0X07,0X03,0X03,0X01,0X01,0X00,0X00,0X00,0X00,0X00,0X00,0X00,0X00,0X00,0X00,0X00,
//  353 0X00,0X00,0X00,0X00,0X00,0X00,0X80,0X80,0X80,0X00,0X00,0X00,0X00,0X00,0X80,0X80,
//  354 0XF0,0XF8,0XF8,0XF0,0X80,0X00,0X00,0X80,0XE0,0XF0,0XF8,0XFC,0X3C,0X1C,0X0C,0X0C,
//  355 0X1C,0XFC,0XF8,0XF0,0XE0,0X80,0X00,0X00,0X00,0XC0,0XC0,0XC1,0X01,0X03,0X03,0X07,
//  356 0X06,0X0E,0X0C,0X18,0X38,0X70,0X60,0XC0,0X80,0X80,0X00,0X00,0X00,0X00,0X00,0X00,
//  357 0X00,0X00,0XC0,0XF0,0X78,0X1E,0X07,0X33,0X31,0X38,0X78,0XFC,0XFE,0XF6,0XC0,0X80,
//  358 0X00,0X00,0X00,0X00,0XC0,0XC0,0X80,0X00,0XF8,0XFC,0XDE,0X0E,0X0F,0X1E,0XBE,0XFC,
//  359 0XF0,0X06,0XFF,0XFF,0XFF,0XFF,0X03,0X07,0XFF,0XFF,0XFE,0X80,0X1E,0X3F,0XFF,0XFF,
//  360 0XF9,0XF9,0XFF,0XFF,0X7F,0X1F,0X0E,0X7F,0XFF,0XFF,0XFF,0XC1,0X80,0XCE,0XCE,0XC6,
//  361 0XC0,0XFF,0XFF,0XFF,0XFF,0X3F,0X80,0XFC,0XFC,0XFD,0X7D,0X01,0XC0,0XF8,0XF8,0XF0,
//  362 0X70,0X00,0XC0,0X80,0X80,0X80,0X00,0X00,0X01,0X07,0X0E,0X3C,0XF8,0XE0,0X80,0X00,
//  363 0X00,0XFE,0XFF,0X03,0X00,0X00,0X00,0X00,0X00,0X00,0X00,0X01,0X03,0X0F,0X1F,0X7F,
//  364 0XFE,0XFC,0XF0,0XF0,0XF0,0X7F,0X7F,0X3E,0X10,0X03,0X03,0X0F,0X1F,0X1F,0X0F,0X0F,
//  365 0X03,0X04,0X07,0X07,0X07,0X07,0X06,0X00,0X07,0X07,0X07,0X0F,0X1E,0X3F,0X7F,0X7F,
//  366 0X7F,0X79,0X73,0X3F,0X3F,0X1F,0X0E,0X00,0X01,0X03,0X03,0X07,0X07,0X06,0X0E,0X0F,
//  367 0X0F,0X1F,0X3F,0X3D,0X08,0X0C,0X1F,0X1F,0X1F,0X19,0X3C,0X7F,0X7F,0X7F,0XF3,0XF0,
//  368 0XFC,0XFE,0X3F,0X1F,0X07,0X01,0X00,0X00,0X00,0X00,0X00,0X00,0X00,0XCF,0XFF,0X70,
//  369 0X00,0X03,0X1F,0X7E,0XF0,0XC0,0X00,0X00,0X00,0X00,0X00,0X00,0X00,0X00,0X00,0X00,
//  370 0X03,0X03,0X01,0X01,0X00,0X00,0X00,0X00,0XC0,0XC0,0X40,0X40,0X40,0X40,0XF8,0X78,
//  371 0X40,0XC0,0X40,0X58,0X58,0X40,0X40,0X40,0X00,0X00,0X00,0X00,0X00,0X80,0X80,0X80,
//  372 0X00,0X00,0X00,0X00,0X00,0X00,0X60,0XF0,0XE0,0X20,0X20,0X20,0X20,0X30,0X30,0X38,
//  373 0X18,0X10,0X00,0X00,0X00,0X00,0X00,0X00,0X00,0X00,0X00,0X00,0X00,0X00,0X00,0X01,
//  374 0X01,0X01,0X00,0X00,0X00,0X00,0X00,0X00,0X00,0X00,0X80,0XE0,0XF8,0X3F,0X0F,0X00,
//  375 0X00,0X00,0X00,0X00,0X00,0X03,0X07,0X0E,0X1C,0X38,0X30,0X60,0XE0,0XC0,0X80,0X00,
//  376 0X00,0X00,0X00,0X00,0X00,0X00,0X40,0X60,0X60,0X70,0X30,0X18,0X0C,0X07,0X11,0X08,
//  377 0X3F,0X7D,0X66,0XE7,0XE3,0XC0,0XC0,0XC0,0XE0,0X60,0X00,0X00,0X00,0X03,0X03,0X03,
//  378 0X00,0X00,0X60,0X60,0X60,0X60,0X60,0X7F,0X7F,0X61,0X61,0X61,0X61,0X7F,0X7F,0X61,
//  379 0X61,0XE1,0XE0,0XE0,0XC0,0XC0,0X00,0X00,0X00,0X00,0X00,0X00,0X00,0X00,0X00,0X00,
//  380 0X00,0X80,0XC0,0XC0,0XE0,0X70,0X38,0X18,0X0C,0X07,0X03,0X01,0X00,0X00,0X00,0X00,
//  381 0X00,0X00,0X00,0X00,0X00,0X00,0X00,0X00,0X00,0X00,0X00,0X00,0X00,0X01,0X01,0X03,
//  382 0X03,0X06,0X06,0X0C,0X0C,0X18,0X18,0X38,0X30,0X30,0X70,0X60,0X60,0XE0,0XC0,0XC0,
//  383 0XC0,0XC0,0XC0,0X80,0X80,0X80,0X81,0X80,0X80,0X80,0X80,0X80,0X00,0X00,0X00,0X00,
//  384 0X00,0X00,0X00,0X00,0X80,0X80,0X80,0X80,0X80,0X80,0X80,0X80,0X80,0X80,0XC0,0XC0,
//  385 0XC0,0XC0,0XC0,0X60,0X60,0X60,0X30,0X30,0X30,0X18,0X18,0X1C,0X0C,0X0E,0X06,0X07,
//  386 0X03,0X03,0X01,0X00,0X00,0X00,0X00,0X00,0X00,0X00,0X00,0X00,0X00,0X00,0X00,0X00,
//  387 0X00,0X00,0X00,0X00,0X00,0X00,0X00,0X00,0X00,0X00,0X00,0X00,0X00,0X00,0X00,0X00,
//  388 0X00,0X00,0X00,0X00,0X00,0X00,0X00,0X00,0X00,0X00,0X00,0X00,0X00,0X00,0X00,0X00,
//  389 0X00,0X00,0X01,0X01,0X01,0X01,0X01,0X01,0X01,0X03,0X03,0X03,0X03,0X03,0X03,0X03,
//  390 0X03,0X03,0X03,0X03,0X03,0X03,0X03,0X01,0X01,0X01,0X01,0X01,0X01,0X01,0X00,0X00,
//  391 0X00,0X00,0X00,0X00,0X00,0X00,0X00,0X00,0X00,0X00,0X00,0X00,0X00,0X00,0X00,0X00,
//  392 0X00,0X00,0X00,0X00,0X00,0X00,0X00,0X00,0X00,0X00,0X00,0X00,0X00,0X00,0X00,0X00,
//  393 
//  394 };

        SECTION `.rodata`:CONST:REORDER:NOROOT(2)
        DATA
//  395 const unsigned char LIBLOGO60x58[480] = { 
LIBLOGO60x58:
        DC8 0, 0, 0, 0, 0, 0, 0, 0, 0, 0, 0, 0, 0, 0, 0, 0, 0, 0, 0, 0, 0, 0, 0
        DC8 0, 0, 0, 0, 0, 0, 0, 0, 0, 0, 0, 0, 0, 0, 0, 0, 0, 0, 0, 0, 0, 0, 0
        DC8 0, 0, 0, 0, 0, 0, 0, 0, 0, 0, 0, 0, 0, 0, 0, 0, 0, 0, 0, 0, 192
        DC8 224, 248, 252, 254, 127, 63, 15, 15, 7, 7, 7, 135, 199, 199, 199
        DC8 231, 239, 255, 255, 255, 239, 231, 231, 231, 231, 231, 239, 255
        DC8 255, 255, 239, 231, 231, 231, 231, 231, 247, 7, 15, 63, 127, 255
        DC8 254, 252, 240, 192, 0, 0, 0, 0, 0, 0, 0, 0, 0, 0, 216, 220, 223
        DC8 223, 223, 223, 215, 1, 0, 0, 0, 0, 0, 0, 62, 127, 255, 255, 227
        DC8 225, 225, 255, 255, 255, 224, 224, 224, 224, 224, 224, 224, 255
        DC8 255, 255, 224, 224, 224, 224, 193, 131, 7, 0, 0, 0, 0, 1, 215, 223
        DC8 223, 223, 223, 220, 216, 0, 0, 0, 0, 0, 0, 0, 1, 3, 15, 31, 63, 255
        DC8 255, 254, 248, 240, 224, 192, 128, 0, 0, 248, 240, 224, 192, 192
        DC8 192, 255, 255, 255, 192, 192, 192, 192, 192, 192, 192, 255, 255
        DC8 255, 192, 224, 225, 243, 255, 127, 63, 0, 192, 224, 248, 254, 255
        DC8 255, 255, 63, 31, 7, 1, 0, 0, 0, 0, 0, 0, 0, 0, 0, 0, 0, 0, 0, 0, 1
        DC8 7, 15, 63, 127, 255, 254, 252, 249, 243, 193, 129, 1, 1, 255, 255
        DC8 255, 1, 1, 1, 1, 1, 1, 1, 255, 255, 255, 3, 1, 129, 192, 240, 252
        DC8 254, 255, 255, 127, 63, 15, 7, 3, 0, 0, 0, 0, 0, 0, 0, 0, 0, 0, 0
        DC8 0, 0, 0, 0, 0, 0, 0, 0, 0, 0, 0, 0, 0, 0, 3, 7, 15, 63, 127, 255
        DC8 255, 255, 251, 243, 227, 195, 3, 3, 3, 3, 3, 131, 195, 243, 243
        DC8 251, 255, 255, 255, 127, 63, 15, 3, 1, 0, 0, 0, 0, 0, 0, 0, 0, 0, 0
        DC8 0, 0, 0, 0, 0, 0, 0, 0, 0, 0, 0, 0, 0, 0, 0, 0, 0, 0, 0, 0, 0, 0, 0
        DC8 0, 0, 0, 3, 7, 7, 31, 63, 127, 255, 254, 252, 252, 254, 255, 255
        DC8 127, 63, 15, 7, 3, 0, 0, 0, 0, 0, 0, 0, 0, 0, 0, 0, 0, 0, 0, 0, 0
        DC8 0, 0, 0, 0, 0, 0, 0, 0, 0, 0, 0, 0, 0, 0, 0, 0, 0, 0, 0, 0, 0, 0, 0
        DC8 0, 0, 0, 0, 0, 0, 0, 0, 0, 0, 3, 7, 15, 15, 7, 1, 0, 0, 0, 0, 0, 0
        DC8 0, 0, 0, 0, 0, 0, 0, 0, 0, 0, 0, 0, 0, 0, 0, 0, 0, 0, 0
//  396   0X00,0X00,0X00,0X00,0X00,0X00,0X00,0X00,0X00,0X00,0X00,0X00,0X00,0X00,0X00,0X00,
//  397   0X00,0X00,0X00,0X00,0X00,0X00,0X00,0X00,0X00,0X00,0X00,0X00,0X00,0X00,0X00,0X00,
//  398   0X00,0X00,0X00,0X00,0X00,0X00,0X00,0X00,0X00,0X00,0X00,0X00,0X00,0X00,0X00,0X00,
//  399   0X00,0X00,0X00,0X00,0X00,0X00,0X00,0X00,0X00,0X00,0X00,0X00,0X00,0X00,0X00,0X00,
//  400   0X00,0X00,0XC0,0XE0,0XF8,0XFC,0XFE,0X7F,0X3F,0X0F,0X0F,0X07,0X07,0X07,0X87,0XC7,
//  401   0XC7,0XC7,0XE7,0XEF,0XFF,0XFF,0XFF,0XEF,0XE7,0XE7,0XE7,0XE7,0XE7,0XEF,0XFF,0XFF,
//  402   0XFF,0XEF,0XE7,0XE7,0XE7,0XE7,0XE7,0XF7,0X07,0X0F,0X3F,0X7F,0XFF,0XFE,0XFC,0XF0,
//  403   0XC0,0X00,0X00,0X00,0X00,0X00,0X00,0X00,0X00,0X00,0X00,0XD8,0XDC,0XDF,0XDF,0XDF,
//  404   0XDF,0XD7,0X01,0X00,0X00,0X00,0X00,0X00,0X00,0X3E,0X7F,0XFF,0XFF,0XE3,0XE1,0XE1,
//  405   0XFF,0XFF,0XFF,0XE0,0XE0,0XE0,0XE0,0XE0,0XE0,0XE0,0XFF,0XFF,0XFF,0XE0,0XE0,0XE0,
//  406   0XE0,0XC1,0X83,0X07,0X00,0X00,0X00,0X00,0X01,0XD7,0XDF,0XDF,0XDF,0XDF,0XDC,0XD8,
//  407   0X00,0X00,0X00,0X00,0X00,0X00,0X00,0X01,0X03,0X0F,0X1F,0X3F,0XFF,0XFF,0XFE,0XF8,
//  408   0XF0,0XE0,0XC0,0X80,0X00,0X00,0XF8,0XF0,0XE0,0XC0,0XC0,0XC0,0XFF,0XFF,0XFF,0XC0,
//  409   0XC0,0XC0,0XC0,0XC0,0XC0,0XC0,0XFF,0XFF,0XFF,0XC0,0XE0,0XE1,0XF3,0XFF,0X7F,0X3F,
//  410   0X00,0XC0,0XE0,0XF8,0XFE,0XFF,0XFF,0XFF,0X3F,0X1F,0X07,0X01,0X00,0X00,0X00,0X00,
//  411   0X00,0X00,0X00,0X00,0X00,0X00,0X00,0X00,0X00,0X00,0X01,0X07,0X0F,0X3F,0X7F,0XFF,
//  412   0XFE,0XFC,0XF9,0XF3,0XC1,0X81,0X01,0X01,0XFF,0XFF,0XFF,0X01,0X01,0X01,0X01,0X01,
//  413   0X01,0X01,0XFF,0XFF,0XFF,0X03,0X01,0X81,0XC0,0XF0,0XFC,0XFE,0XFF,0XFF,0X7F,0X3F,
//  414   0X0F,0X07,0X03,0X00,0X00,0X00,0X00,0X00,0X00,0X00,0X00,0X00,0X00,0X00,0X00,0X00,
//  415   0X00,0X00,0X00,0X00,0X00,0X00,0X00,0X00,0X00,0X00,0X00,0X00,0X03,0X07,0X0F,0X3F,
//  416   0X7F,0XFF,0XFF,0XFF,0XFB,0XF3,0XE3,0XC3,0X03,0X03,0X03,0X03,0X03,0X83,0XC3,0XF3,
//  417   0XF3,0XFB,0XFF,0XFF,0XFF,0X7F,0X3F,0X0F,0X03,0X01,0X00,0X00,0X00,0X00,0X00,0X00,
//  418   0X00,0X00,0X00,0X00,0X00,0X00,0X00,0X00,0X00,0X00,0X00,0X00,0X00,0X00,0X00,0X00,
//  419   0X00,0X00,0X00,0X00,0X00,0X00,0X00,0X00,0X00,0X00,0X00,0X00,0X00,0X00,0X03,0X07,
//  420   0X07,0X1F,0X3F,0X7F,0XFF,0XFE,0XFC,0XFC,0XFE,0XFF,0XFF,0X7F,0X3F,0X0F,0X07,0X03,
//  421   0X00,0X00,0X00,0X00,0X00,0X00,0X00,0X00,0X00,0X00,0X00,0X00,0X00,0X00,0X00,0X00,
//  422   0X00,0X00,0X00,0X00,0X00,0X00,0X00,0X00,0X00,0X00,0X00,0X00,0X00,0X00,0X00,0X00,
//  423   0X00,0X00,0X00,0X00,0X00,0X00,0X00,0X00,0X00,0X00,0X00,0X00,0X00,0X00,0X00,0X00,
//  424   0X00,0X03,0X07,0X0F,0X0F,0X07,0X01,0X00,0X00,0X00,0X00,0X00,0X00,0X00,0X00,0X00,
//  425   0X00,0X00,0X00,0X00,0X00,0X00,0X00,0X00,0X00,0X00,0X00,0X00,0X00,0X00,0X00,0X00,
//  426 }; 

        SECTION `.text`:CODE:NOROOT(2)
        THUMB
//  427 void LCD_WrDat(unsigned char data)
//  428 {
LCD_WrDat:
        MOVS     R1,R0
//  429 	unsigned char i=8;
        MOVS     R2,#+8
//  430 	//LCD_CS=0;;
//  431 	LCD_DC=1;;
        MOVS     R0,#+1
        LDR.W    R3,??DataTable8  ;; 0x43fe1034
        STR      R0,[R3, #+0]
//  432   LCD_SCL=0;;
        MOVS     R0,#+0
        LDR.W    R3,??DataTable8_1  ;; 0x43fe1040
        STR      R0,[R3, #+0]
        B.N      ??LCD_WrDat_0
//  433   //asm("nop");    
//  434   while(i--)
//  435   {
//  436     if(data&0x80){LCD_SDA=1;}
//  437     else{LCD_SDA=0;}
??LCD_WrDat_1:
        MOVS     R0,#+0
        LDR.W    R3,??DataTable8_2  ;; 0x43fe103c
        STR      R0,[R3, #+0]
        B.N      ??LCD_WrDat_2
??LCD_WrDat_3:
        LSLS     R0,R1,#+24
        BPL.N    ??LCD_WrDat_1
        MOVS     R0,#+1
        LDR.W    R3,??DataTable8_2  ;; 0x43fe103c
        STR      R0,[R3, #+0]
//  438     LCD_SCL=1; 
??LCD_WrDat_2:
        MOVS     R0,#+1
        LDR.W    R3,??DataTable8_1  ;; 0x43fe1040
        STR      R0,[R3, #+0]
//  439     asm("nop");;
        nop
//  440 		//asm("nop");            
//  441     LCD_SCL=0;;    
        MOVS     R0,#+0
        LDR.W    R3,??DataTable8_1  ;; 0x43fe1040
        STR      R0,[R3, #+0]
//  442     data<<=1;    
        LSLS     R1,R1,#+1
//  443   }
??LCD_WrDat_0:
        MOVS     R0,R2
        SUBS     R2,R0,#+1
        UXTB     R0,R0            ;; ZeroExt  R0,R0,#+24,#+24
        CMP      R0,#+0
        BNE.N    ??LCD_WrDat_3
//  444 	//LCD_CS=1;
//  445 }
??LCD_WrDat_4:
        BX       LR               ;; return

        SECTION `.text`:CODE:NOROOT(2)
        THUMB
//  446 void LCD_WrCmd(unsigned char cmd)
//  447 {
LCD_WrCmd:
        MOVS     R1,R0
//  448 	unsigned char i=8;
        MOVS     R2,#+8
//  449 	
//  450 	//LCD_CS=0;;
//  451 	LCD_DC=0;;
        MOVS     R0,#+0
        LDR.W    R3,??DataTable8  ;; 0x43fe1034
        STR      R0,[R3, #+0]
//  452   LCD_SCL=0;;
        MOVS     R0,#+0
        LDR.W    R3,??DataTable8_1  ;; 0x43fe1040
        STR      R0,[R3, #+0]
        B.N      ??LCD_WrCmd_0
//  453   //asm("nop");   
//  454   while(i--)
//  455   {
//  456     if(cmd&0x80){LCD_SDA=1;}
//  457     else{LCD_SDA=0;;}
??LCD_WrCmd_1:
        MOVS     R0,#+0
        LDR.W    R3,??DataTable8_2  ;; 0x43fe103c
        STR      R0,[R3, #+0]
        B.N      ??LCD_WrCmd_2
??LCD_WrCmd_3:
        LSLS     R0,R1,#+24
        BPL.N    ??LCD_WrCmd_1
        MOVS     R0,#+1
        LDR.W    R3,??DataTable8_2  ;; 0x43fe103c
        STR      R0,[R3, #+0]
//  458     LCD_SCL=1;;
??LCD_WrCmd_2:
        MOVS     R0,#+1
        LDR.W    R3,??DataTable8_1  ;; 0x43fe1040
        STR      R0,[R3, #+0]
//  459     asm("nop");;
        nop
//  460 		//asm("nop");             
//  461     LCD_SCL=0;;    
        MOVS     R0,#+0
        LDR.W    R3,??DataTable8_1  ;; 0x43fe1040
        STR      R0,[R3, #+0]
//  462     cmd<<=1;;   
        LSLS     R1,R1,#+1
//  463   } 	
??LCD_WrCmd_0:
        MOVS     R0,R2
        SUBS     R2,R0,#+1
        UXTB     R0,R0            ;; ZeroExt  R0,R0,#+24,#+24
        CMP      R0,#+0
        BNE.N    ??LCD_WrCmd_3
//  464 	//LCD_CS=1;
//  465 }
??LCD_WrCmd_4:
        BX       LR               ;; return

        SECTION `.text`:CODE:NOROOT(1)
        THUMB
//  466 void LCD_Set_Pos(unsigned char x, unsigned char y)
//  467 { 
LCD_Set_Pos:
        PUSH     {R4,LR}
        MOVS     R4,R0
//  468   LCD_WrCmd(0xb0+y);
        SUBS     R0,R1,#+80
        UXTB     R0,R0            ;; ZeroExt  R0,R0,#+24,#+24
        BL       LCD_WrCmd
//  469   LCD_WrCmd(((x&0xf0)>>4)|0x10);
        MOVS     R0,R4
        UXTB     R0,R0            ;; ZeroExt  R0,R0,#+24,#+24
        LSRS     R0,R0,#+4
        ORRS     R0,R0,#0x10
        UXTB     R0,R0            ;; ZeroExt  R0,R0,#+24,#+24
        BL       LCD_WrCmd
//  470   LCD_WrCmd((x&0x0f)|0x01); 
        ANDS     R4,R4,#0xF
        ORRS     R4,R4,#0x1
        MOVS     R0,R4
        UXTB     R0,R0            ;; ZeroExt  R0,R0,#+24,#+24
        BL       LCD_WrCmd
//  471 } 
        POP      {R4,PC}          ;; return

        SECTION `.text`:CODE:NOROOT(1)
        THUMB
//  472 void LCD_Fill(unsigned char bmp_data)
//  473 {
LCD_Fill:
        PUSH     {R4-R6,LR}
        MOVS     R4,R0
//  474 	unsigned char y,x;
//  475 	
//  476 	for(y=0;y<8;y++)
        MOVS     R5,#+0
        B.N      ??LCD_Fill_0
//  477 	{
//  478 		LCD_WrCmd(0xb0+y);
//  479 		LCD_WrCmd(0x01);
//  480 		LCD_WrCmd(0x10);
//  481 		for(x=0;x<X_WIDTH;x++)
//  482 			LCD_WrDat(bmp_data);
??LCD_Fill_1:
        MOVS     R0,R4
        UXTB     R0,R0            ;; ZeroExt  R0,R0,#+24,#+24
        BL       LCD_WrDat
        ADDS     R6,R6,#+1
??LCD_Fill_2:
        MOVS     R0,R6
        UXTB     R0,R0            ;; ZeroExt  R0,R0,#+24,#+24
        CMP      R0,#+128
        BLT.N    ??LCD_Fill_1
        ADDS     R5,R5,#+1
??LCD_Fill_0:
        MOVS     R0,R5
        UXTB     R0,R0            ;; ZeroExt  R0,R0,#+24,#+24
        CMP      R0,#+8
        BGE.N    ??LCD_Fill_3
        SUBS     R0,R5,#+80
        UXTB     R0,R0            ;; ZeroExt  R0,R0,#+24,#+24
        BL       LCD_WrCmd
        MOVS     R0,#+1
        BL       LCD_WrCmd
        MOVS     R0,#+16
        BL       LCD_WrCmd
        MOVS     R6,#+0
        B.N      ??LCD_Fill_2
//  483 	}
//  484 }
??LCD_Fill_3:
        POP      {R4-R6,PC}       ;; return

        SECTION `.text`:CODE:NOROOT(1)
        THUMB
//  485 void LCD_CLS(void)
//  486 {
LCD_CLS:
        PUSH     {R3-R5,LR}
//  487 	unsigned char y,x;	
//  488 	for(y=0;y<8;y++)
        MOVS     R4,#+0
        B.N      ??LCD_CLS_0
//  489 	{
//  490 		LCD_WrCmd(0xb0+y);
//  491 		LCD_WrCmd(0x01);
//  492 		LCD_WrCmd(0x10); 
//  493 		for(x=0;x<X_WIDTH;x++)
//  494 			LCD_WrDat(0);
??LCD_CLS_1:
        MOVS     R0,#+0
        BL       LCD_WrDat
        ADDS     R5,R5,#+1
??LCD_CLS_2:
        MOVS     R0,R5
        UXTB     R0,R0            ;; ZeroExt  R0,R0,#+24,#+24
        CMP      R0,#+128
        BLT.N    ??LCD_CLS_1
        ADDS     R4,R4,#+1
??LCD_CLS_0:
        MOVS     R0,R4
        UXTB     R0,R0            ;; ZeroExt  R0,R0,#+24,#+24
        CMP      R0,#+8
        BGE.N    ??LCD_CLS_3
        SUBS     R0,R4,#+80
        UXTB     R0,R0            ;; ZeroExt  R0,R0,#+24,#+24
        BL       LCD_WrCmd
        MOVS     R0,#+1
        BL       LCD_WrCmd
        MOVS     R0,#+16
        BL       LCD_WrCmd
        MOVS     R5,#+0
        B.N      ??LCD_CLS_2
//  495 	}
//  496 }
??LCD_CLS_3:
        POP      {R0,R4,R5,PC}    ;; return

        SECTION `.text`:CODE:NOROOT(1)
        THUMB
//  497 void LCD_DLY_ms(unsigned int ms)
//  498 {                         
LCD_DLY_ms:
        B.N      ??LCD_DLY_ms_0
//  499   unsigned int a;
//  500   while(ms)
//  501   {
//  502     a=1335;
??LCD_DLY_ms_1:
        MOVW     R2,#+1335
//  503     while(a--);
??LCD_DLY_ms_2:
        MOVS     R1,R2
        SUBS     R2,R1,#+1
        CMP      R1,#+0
        BNE.N    ??LCD_DLY_ms_2
//  504     ms--;
        SUBS     R0,R0,#+1
//  505   }
??LCD_DLY_ms_0:
        CMP      R0,#+0
        BNE.N    ??LCD_DLY_ms_1
//  506   return;
        BX       LR               ;; return
//  507 }
//  508 
//  509 
//  510 
//  511 

        SECTION `.text`:CODE:NOROOT(1)
        THUMB
//  512 void LCD_Init(void)        
//  513 { 
LCD_Init:
        PUSH     {R7,LR}
//  514       GPIO_Init(PTC,13,1,0);
        MOVS     R3,#+0
        MOVS     R2,#+1
        MOVS     R1,#+13
        LDR.W    R0,??DataTable8_3  ;; 0x400ff080
        BL       GPIO_Init
//  515       GPIO_Init(PTC,14,1,0);
        MOVS     R3,#+0
        MOVS     R2,#+1
        MOVS     R1,#+14
        LDR.W    R0,??DataTable8_3  ;; 0x400ff080
        BL       GPIO_Init
//  516       GPIO_Init(PTC,15,1,0);
        MOVS     R3,#+0
        MOVS     R2,#+1
        MOVS     R1,#+15
        LDR.W    R0,??DataTable8_3  ;; 0x400ff080
        BL       GPIO_Init
//  517       GPIO_Init(PTC,16,1,0);
        MOVS     R3,#+0
        MOVS     R2,#+1
        MOVS     R1,#+16
        LDR.W    R0,??DataTable8_3  ;; 0x400ff080
        BL       GPIO_Init
//  518   
//  519 	LCD_SCL=1;
        MOVS     R0,#+1
        LDR.W    R1,??DataTable8_1  ;; 0x43fe1040
        STR      R0,[R1, #+0]
//  520 	//LCD_CS=1;	//@@SLK@SS@@@@   	
//  521 	
//  522 	LCD_RST=0;
        MOVS     R0,#+0
        LDR.W    R1,??DataTable8_4  ;; 0x43fe1038
        STR      R0,[R1, #+0]
//  523 	LCD_DLY_ms(50);
        MOVS     R0,#+50
        BL       LCD_DLY_ms
//  524 	LCD_RST=1;
        MOVS     R0,#+1
        LDR.W    R1,??DataTable8_4  ;; 0x43fe1038
        STR      R0,[R1, #+0]
//  525 
//  526   LCD_WrCmd(0xae);//--turn off oled panel
        MOVS     R0,#+174
        BL       LCD_WrCmd
//  527   LCD_WrCmd(0x00);//---set low column address
        MOVS     R0,#+0
        BL       LCD_WrCmd
//  528   LCD_WrCmd(0x10);//---set high column address
        MOVS     R0,#+16
        BL       LCD_WrCmd
//  529   LCD_WrCmd(0x40);//--set start line address  Set Mapping RAM Display Start Line (0x00~0x3F)
        MOVS     R0,#+64
        BL       LCD_WrCmd
//  530   LCD_WrCmd(0x81);//--set contrast control register
        MOVS     R0,#+129
        BL       LCD_WrCmd
//  531   LCD_WrCmd(0xcf); // Set SEG Output Current Brightness
        MOVS     R0,#+207
        BL       LCD_WrCmd
//  532   LCD_WrCmd(0xa1);//--Set SEG/Column Mapping     0xa0@@@@ 0xa1@@
        MOVS     R0,#+161
        BL       LCD_WrCmd
//  533   LCD_WrCmd(0xc8);//Set COM/Row Scan Direction   0xc0@@@@ 0xc8@@
        MOVS     R0,#+200
        BL       LCD_WrCmd
//  534   LCD_WrCmd(0xa6);//--set normal display
        MOVS     R0,#+166
        BL       LCD_WrCmd
//  535   LCD_WrCmd(0xa8);//--set multiplex ratio(1 to 64)
        MOVS     R0,#+168
        BL       LCD_WrCmd
//  536   LCD_WrCmd(0x3f);//--1/64 duty
        MOVS     R0,#+63
        BL       LCD_WrCmd
//  537   LCD_WrCmd(0xd3);//-set display offset	Shift Mapping RAM Counter (0x00~0x3F)
        MOVS     R0,#+211
        BL       LCD_WrCmd
//  538   LCD_WrCmd(0x00);//-not offset
        MOVS     R0,#+0
        BL       LCD_WrCmd
//  539   LCD_WrCmd(0xd5);//--set display clock divide ratio/oscillator frequency
        MOVS     R0,#+213
        BL       LCD_WrCmd
//  540   LCD_WrCmd(0x80);//--set divide ratio, Set Clock as 100 Frames/Sec
        MOVS     R0,#+128
        BL       LCD_WrCmd
//  541   LCD_WrCmd(0xd9);//--set pre-charge period
        MOVS     R0,#+217
        BL       LCD_WrCmd
//  542   LCD_WrCmd(0xf1);//Set Pre-Charge as 15 Clocks & Discharge as 1 Clock
        MOVS     R0,#+241
        BL       LCD_WrCmd
//  543   LCD_WrCmd(0xda);//--set com pins hardware configuration
        MOVS     R0,#+218
        BL       LCD_WrCmd
//  544   LCD_WrCmd(0x12);
        MOVS     R0,#+18
        BL       LCD_WrCmd
//  545   LCD_WrCmd(0xdb);//--set vcomh
        MOVS     R0,#+219
        BL       LCD_WrCmd
//  546   LCD_WrCmd(0x40);//Set VCOM Deselect Level
        MOVS     R0,#+64
        BL       LCD_WrCmd
//  547   LCD_WrCmd(0x20);//-Set Page Addressing Mode (0x00/0x01/0x02)
        MOVS     R0,#+32
        BL       LCD_WrCmd
//  548   LCD_WrCmd(0x02);//
        MOVS     R0,#+2
        BL       LCD_WrCmd
//  549   LCD_WrCmd(0x8d);//--set Charge Pump enable/disable
        MOVS     R0,#+141
        BL       LCD_WrCmd
//  550   LCD_WrCmd(0x14);//--set(0x10) disable
        MOVS     R0,#+20
        BL       LCD_WrCmd
//  551   LCD_WrCmd(0xa4);// Disable Entire Display On (0xa4/0xa5)
        MOVS     R0,#+164
        BL       LCD_WrCmd
//  552   LCD_WrCmd(0xa6);// Disable Inverse Display On (0xa6/a7) 
        MOVS     R0,#+166
        BL       LCD_WrCmd
//  553   LCD_WrCmd(0xaf);//--turn on oled panel
        MOVS     R0,#+175
        BL       LCD_WrCmd
//  554   LCD_Fill(0x00);  //@@@@
        MOVS     R0,#+0
        BL       LCD_Fill
//  555   LCD_Set_Pos(0,0);  
        MOVS     R1,#+0
        MOVS     R0,#+0
        BL       LCD_Set_Pos
//  556 	
//  557 } 
        POP      {R0,PC}          ;; return
//  558 //==============================================================
//  559 //@@@@ void LCD_PutPixel(unsigned char x,unsigned char y)
//  560 //@@@@@@@@@@@x,y@
//  561 //@@@@@@@@(x,y),x@@@0@127@y@@@0@64
//  562 //@@@@
//  563 //==============================================================

        SECTION `.text`:CODE:NOROOT(1)
        THUMB
//  564 void LCD_PutPixel(unsigned char x,unsigned char y)
//  565 {
LCD_PutPixel:
        PUSH     {R4-R6,LR}
        MOVS     R4,R0
        MOVS     R5,R1
//  566 	unsigned char data1;  //data1@@@@@@ 
//  567 
//  568 	LCD_Set_Pos(x,(unsigned char)(y>>3)); 
        MOVS     R1,R5
        UXTB     R1,R1            ;; ZeroExt  R1,R1,#+24,#+24
        LSRS     R1,R1,#+3
        MOVS     R0,R4
        UXTB     R0,R0            ;; ZeroExt  R0,R0,#+24,#+24
        BL       LCD_Set_Pos
//  569 	data1 =(unsigned char)(0x01<<(y%8)); 	
        MOVS     R0,R5
        UXTB     R0,R0            ;; ZeroExt  R0,R0,#+24,#+24
        MOVS     R1,#+8
        MOVS     R2,#+1
        SDIV     R6,R0,R1
        MLS      R6,R1,R6,R0
        LSLS     R6,R2,R6
//  570 	LCD_WrCmd((unsigned char)(0xb0+(y>>3)));
        UXTB     R5,R5            ;; ZeroExt  R5,R5,#+24,#+24
        LSRS     R5,R5,#+3
        SUBS     R0,R5,#+80
        UXTB     R0,R0            ;; ZeroExt  R0,R0,#+24,#+24
        BL       LCD_WrCmd
//  571 	LCD_WrCmd((unsigned char)(((x&0xf0)>>4)|0x10));
        MOVS     R0,R4
        UXTB     R0,R0            ;; ZeroExt  R0,R0,#+24,#+24
        LSRS     R0,R0,#+4
        ORRS     R0,R0,#0x10
        UXTB     R0,R0            ;; ZeroExt  R0,R0,#+24,#+24
        BL       LCD_WrCmd
//  572 	LCD_WrCmd((unsigned char)((x&0x0f)|0x00));
        ANDS     R4,R4,#0xF
        MOVS     R0,R4
        BL       LCD_WrCmd
//  573 	LCD_WrDat(data1); 	 	
        MOVS     R0,R6
        UXTB     R0,R0            ;; ZeroExt  R0,R0,#+24,#+24
        BL       LCD_WrDat
//  574 }
        POP      {R4-R6,PC}       ;; return
//  575 //==============================================================
//  576 //@@@@ void LCD_Rectangle(unsigned char x1,unsigned char y1,
//  577 //                   unsigned char x2,unsigned char y2,unsigned char color,unsigned char gif)
//  578 //@@@@@@@@@@@@@
//  579 //@@@@@@@@@x1,y1@,@@@@@@x2@y2@
//  580 //      @@x1@x2@@@0@127@y1@y2@@@0@63@@@@@@@
//  581 //@@@@
//  582 //==============================================================

        SECTION `.text`:CODE:NOROOT(1)
        THUMB
//  583 void LCD_Rectangle(unsigned char x1,unsigned char y1,unsigned char x2,unsigned char y2,unsigned char gif)
//  584 {
LCD_Rectangle:
        PUSH     {R3-R9,LR}
        MOVS     R6,R0
        MOV      R8,R1
        MOVS     R5,R2
        MOVS     R7,R3
        LDR      R4,[SP, #+32]
//  585 	unsigned char n; 
//  586 		
//  587 	LCD_Set_Pos(x1,y1>>3);
        MOV      R1,R8
        UXTB     R1,R1            ;; ZeroExt  R1,R1,#+24,#+24
        LSRS     R1,R1,#+3
        MOVS     R0,R6
        UXTB     R0,R0            ;; ZeroExt  R0,R0,#+24,#+24
        BL       LCD_Set_Pos
//  588 	for(n=x1;n<=x2;n++)
        MOV      R9,R6
        B.N      ??LCD_Rectangle_0
//  589 	{
//  590 		LCD_WrDat(0x01<<(y1%8)); 			
??LCD_Rectangle_1:
        MOV      R0,R8
        UXTB     R0,R0            ;; ZeroExt  R0,R0,#+24,#+24
        MOVS     R1,#+8
        MOVS     R2,#+1
        SDIV     R3,R0,R1
        MLS      R0,R1,R3,R0
        LSLS     R0,R2,R0
        UXTB     R0,R0            ;; ZeroExt  R0,R0,#+24,#+24
        BL       LCD_WrDat
//  591 		if(gif == 1) 	LCD_DLY_ms(50);
        MOVS     R0,R4
        UXTB     R0,R0            ;; ZeroExt  R0,R0,#+24,#+24
        CMP      R0,#+1
        BNE.N    ??LCD_Rectangle_2
        MOVS     R0,#+50
        BL       LCD_DLY_ms
//  592 	}  
??LCD_Rectangle_2:
        ADDS     R9,R9,#+1
??LCD_Rectangle_0:
        MOVS     R0,R5
        MOV      R1,R9
        UXTB     R0,R0            ;; ZeroExt  R0,R0,#+24,#+24
        UXTB     R1,R1            ;; ZeroExt  R1,R1,#+24,#+24
        CMP      R0,R1
        BCS.N    ??LCD_Rectangle_1
//  593 	LCD_Set_Pos(x1,y2>>3);
        MOVS     R1,R7
        UXTB     R1,R1            ;; ZeroExt  R1,R1,#+24,#+24
        LSRS     R1,R1,#+3
        MOVS     R0,R6
        UXTB     R0,R0            ;; ZeroExt  R0,R0,#+24,#+24
        BL       LCD_Set_Pos
//  594   for(n=x1;n<=x2;n++)
        B.N      ??LCD_Rectangle_3
//  595 	{
//  596 		LCD_WrDat(0x01<<(y2%8)); 			
??LCD_Rectangle_4:
        MOVS     R0,R7
        UXTB     R0,R0            ;; ZeroExt  R0,R0,#+24,#+24
        MOVS     R1,#+8
        MOVS     R2,#+1
        SDIV     R3,R0,R1
        MLS      R0,R1,R3,R0
        LSLS     R0,R2,R0
        UXTB     R0,R0            ;; ZeroExt  R0,R0,#+24,#+24
        BL       LCD_WrDat
//  597 		if(gif == 1) 	LCD_DLY_ms(5);
        MOVS     R0,R4
        UXTB     R0,R0            ;; ZeroExt  R0,R0,#+24,#+24
        CMP      R0,#+1
        BNE.N    ??LCD_Rectangle_5
        MOVS     R0,#+5
        BL       LCD_DLY_ms
//  598 	}
??LCD_Rectangle_5:
        ADDS     R6,R6,#+1
??LCD_Rectangle_3:
        MOVS     R0,R5
        MOVS     R1,R6
        UXTB     R0,R0            ;; ZeroExt  R0,R0,#+24,#+24
        UXTB     R1,R1            ;; ZeroExt  R1,R1,#+24,#+24
        CMP      R0,R1
        BCS.N    ??LCD_Rectangle_4
//  599 	
//  600 }  
        POP      {R0,R4-R9,PC}    ;; return
//  601 //==============================================================
//  602 //@@@@LCD_P6x8Str(unsigned char x,unsigned char y,unsigned char *p)
//  603 //@@@@@@@@@@@ASCII@@@
//  604 //@@@@@@@@@x,y@@y@@@@0@7@@@@@@@@
//  605 //@@@@
//  606 //==============================================================  

        SECTION `.text`:CODE:NOROOT(1)
        THUMB
//  607 void LCD_P6x8Str(unsigned char x,unsigned char y,unsigned char ch[])
//  608 {
LCD_P6x8Str:
        PUSH     {R3-R9,LR}
        MOVS     R4,R0
        MOVS     R5,R1
        MOVS     R6,R2
//  609   unsigned char c=0,i=0,j=0;      
        MOVS     R0,#+0
        MOVS     R0,#+0
        MOVS     R7,#+0
        B.N      ??LCD_P6x8Str_0
//  610   while (ch[j]!='\0')
//  611   {    
//  612     c =ch[j]-32;
//  613     if(x>126){x=0;y++;}
//  614     LCD_Set_Pos(x,y);    
//  615   	for(i=0;i<6;i++)     
//  616   	  LCD_WrDat(F6x8[c][i]);  
??LCD_P6x8Str_1:
        LDR.W    R1,??DataTable8_5
        MOV      R2,R9
        UXTB     R2,R2            ;; ZeroExt  R2,R2,#+24,#+24
        MOVS     R0,#+6
        MULS     R2,R0,R2
        ADD      R0,R1,R2
        MOV      R1,R8
        UXTB     R1,R1            ;; ZeroExt  R1,R1,#+24,#+24
        LDRB     R0,[R0, R1]
        BL       LCD_WrDat
        ADDS     R8,R8,#+1
??LCD_P6x8Str_2:
        MOV      R0,R8
        UXTB     R0,R0            ;; ZeroExt  R0,R0,#+24,#+24
        CMP      R0,#+6
        BLT.N    ??LCD_P6x8Str_1
//  617   	x+=6;
        ADDS     R4,R4,#+6
//  618   	j++;
        ADDS     R7,R7,#+1
??LCD_P6x8Str_0:
        MOVS     R0,R7
        UXTB     R0,R0            ;; ZeroExt  R0,R0,#+24,#+24
        LDRB     R0,[R6, R0]
        CMP      R0,#+0
        BEQ.N    ??LCD_P6x8Str_3
        MOVS     R0,R7
        UXTB     R0,R0            ;; ZeroExt  R0,R0,#+24,#+24
        LDRB     R0,[R6, R0]
        SUBS     R9,R0,#+32
        MOVS     R0,R4
        UXTB     R0,R0            ;; ZeroExt  R0,R0,#+24,#+24
        CMP      R0,#+127
        BLT.N    ??LCD_P6x8Str_4
        MOVS     R4,#+0
        ADDS     R5,R5,#+1
??LCD_P6x8Str_4:
        MOVS     R1,R5
        UXTB     R1,R1            ;; ZeroExt  R1,R1,#+24,#+24
        MOVS     R0,R4
        UXTB     R0,R0            ;; ZeroExt  R0,R0,#+24,#+24
        BL       LCD_Set_Pos
        MOVS     R8,#+0
        B.N      ??LCD_P6x8Str_2
//  619   }
//  620 }
??LCD_P6x8Str_3:
        POP      {R0,R4-R9,PC}    ;; return
//  621 //==============================================================
//  622 //@@@@LCD_P8x16Str(unsigned char x,unsigned char y,unsigned char *p)
//  623 //@@@@@@@@@@@ASCII@@@
//  624 //@@@@@@@@@x,y@@y@@@@0@7@@@@@@@@
//  625 //@@@@
//  626 //==============================================================  

        SECTION `.text`:CODE:NOROOT(1)
        THUMB
//  627 void LCD_P8x16Str(unsigned char x,unsigned char y,unsigned char ch[])
//  628 {
LCD_P8x16Str:
        PUSH     {R3-R9,LR}
        MOVS     R4,R0
        MOVS     R5,R1
        MOVS     R6,R2
//  629   unsigned char c=0,i=0,j=0;
        MOVS     R0,#+0
        MOVS     R0,#+0
        MOVS     R7,#+0
        B.N      ??LCD_P8x16Str_0
//  630         
//  631   while (ch[j]!='\0')
//  632   {    
//  633     c =ch[j]-32;
//  634     if(x>120){x=0;y++;}
//  635     LCD_Set_Pos(x,y);    
//  636   	for(i=0;i<8;i++)     
//  637   	  LCD_WrDat(F8X16[c*16+i]);
//  638   	LCD_Set_Pos(x,y+1);    
//  639   	for(i=0;i<8;i++)     
//  640   	  LCD_WrDat(F8X16[c*16+i+8]);  
??LCD_P8x16Str_1:
        LDR.W    R0,??DataTable8_6
        MOV      R1,R8
        UXTB     R1,R1            ;; ZeroExt  R1,R1,#+24,#+24
        LSLS     R1,R1,#+4
        UXTAB    R1,R1,R9
        ADD      R0,R0,R1
        LDRB     R0,[R0, #+8]
        BL       LCD_WrDat
        ADDS     R9,R9,#+1
??LCD_P8x16Str_2:
        MOV      R0,R9
        UXTB     R0,R0            ;; ZeroExt  R0,R0,#+24,#+24
        CMP      R0,#+8
        BLT.N    ??LCD_P8x16Str_1
//  641   	x+=8;
        ADDS     R4,R4,#+8
//  642   	j++;
        ADDS     R7,R7,#+1
??LCD_P8x16Str_0:
        MOVS     R0,R7
        UXTB     R0,R0            ;; ZeroExt  R0,R0,#+24,#+24
        LDRB     R0,[R6, R0]
        CMP      R0,#+0
        BEQ.N    ??LCD_P8x16Str_3
        MOVS     R0,R7
        UXTB     R0,R0            ;; ZeroExt  R0,R0,#+24,#+24
        LDRB     R0,[R6, R0]
        SUBS     R8,R0,#+32
        MOVS     R0,R4
        UXTB     R0,R0            ;; ZeroExt  R0,R0,#+24,#+24
        CMP      R0,#+121
        BLT.N    ??LCD_P8x16Str_4
        MOVS     R4,#+0
        ADDS     R5,R5,#+1
??LCD_P8x16Str_4:
        MOVS     R1,R5
        UXTB     R1,R1            ;; ZeroExt  R1,R1,#+24,#+24
        MOVS     R0,R4
        UXTB     R0,R0            ;; ZeroExt  R0,R0,#+24,#+24
        BL       LCD_Set_Pos
        MOVS     R9,#+0
        B.N      ??LCD_P8x16Str_5
??LCD_P8x16Str_6:
        LDR.W    R0,??DataTable8_6
        MOV      R1,R8
        UXTB     R1,R1            ;; ZeroExt  R1,R1,#+24,#+24
        LSLS     R1,R1,#+4
        UXTAB    R1,R1,R9
        LDRB     R0,[R0, R1]
        BL       LCD_WrDat
        ADDS     R9,R9,#+1
??LCD_P8x16Str_5:
        MOV      R0,R9
        UXTB     R0,R0            ;; ZeroExt  R0,R0,#+24,#+24
        CMP      R0,#+8
        BLT.N    ??LCD_P8x16Str_6
        ADDS     R1,R5,#+1
        UXTB     R1,R1            ;; ZeroExt  R1,R1,#+24,#+24
        MOVS     R0,R4
        UXTB     R0,R0            ;; ZeroExt  R0,R0,#+24,#+24
        BL       LCD_Set_Pos
        MOVS     R9,#+0
        B.N      ??LCD_P8x16Str_2
//  643   }
//  644 }
??LCD_P8x16Str_3:
        POP      {R0,R4-R9,PC}    ;; return
//  645 //@@@@@@@

        SECTION `.text`:CODE:NOROOT(1)
        THUMB
//  646 void LCD_P14x16Str(unsigned char x,unsigned char y,unsigned char ch[])
//  647 {
LCD_P14x16Str:
        PUSH     {R3-R9,LR}
        MOVS     R4,R0
        MOVS     R5,R1
        MOVS     R6,R2
//  648 	unsigned char wm=0,ii = 0;
        MOVS     R0,#+0
        MOVS     R7,#+0
//  649 	unsigned int adder=1; 
        MOVS     R0,#+1
        B.N      ??LCD_P14x16Str_0
//  650 	
//  651 	while(ch[ii] != '\0')
//  652 	{
//  653   	wm = 0;
//  654   	adder = 1;
//  655   	while(F14x16_Idx[wm] > 127)
//  656   	{
//  657   		if(F14x16_Idx[wm] == ch[ii])
//  658   		{
//  659   			if(F14x16_Idx[wm + 1] == ch[ii + 1])
//  660   			{
//  661   				adder = wm * 14;
//  662   				break;
//  663   			}
//  664   		}
//  665   		wm += 2;			
//  666   	}
//  667   	if(x>118){x=0;y++;}
//  668   	LCD_Set_Pos(x , y); 
//  669   	if(adder != 1)// @@@@					
//  670   	{
//  671   		LCD_Set_Pos(x , y);
//  672   		for(wm = 0;wm < 14;wm++)               
//  673   		{
//  674   			LCD_WrDat(F14x16[adder]);	
//  675   			adder += 1;
//  676   		}      
//  677   		LCD_Set_Pos(x,y + 1); 
//  678   		for(wm = 0;wm < 14;wm++)          
//  679   		{
//  680   			LCD_WrDat(F14x16[adder]);
//  681   			adder += 1;
//  682   		}   		
//  683   	}
//  684   	else			  //@@@@@@			
//  685   	{
//  686   		ii += 1;
//  687       LCD_Set_Pos(x,y);
//  688   		for(wm = 0;wm < 16;wm++)
//  689   		{
//  690   				LCD_WrDat(0);
//  691   		}
//  692   		LCD_Set_Pos(x,y + 1);
//  693   		for(wm = 0;wm < 16;wm++)
//  694   		{   		
//  695   				LCD_WrDat(0);	
??LCD_P14x16Str_1:
        MOVS     R0,#+0
        BL       LCD_WrDat
//  696   		}
        ADDS     R8,R8,#+1
??LCD_P14x16Str_2:
        MOV      R0,R8
        UXTB     R0,R0            ;; ZeroExt  R0,R0,#+24,#+24
        CMP      R0,#+16
        BLT.N    ??LCD_P14x16Str_1
//  697   	}
//  698   	x += 14;
??LCD_P14x16Str_3:
        ADDS     R4,R4,#+14
//  699   	ii += 2;
        ADDS     R7,R7,#+2
??LCD_P14x16Str_0:
        MOVS     R0,R7
        UXTB     R0,R0            ;; ZeroExt  R0,R0,#+24,#+24
        LDRB     R0,[R6, R0]
        CMP      R0,#+0
        BEQ.W    ??LCD_P14x16Str_4
        MOVS     R1,#+0
        MOVS     R8,#+1
        B.N      ??LCD_P14x16Str_5
??LCD_P14x16Str_6:
        ADDS     R1,R1,#+2
??LCD_P14x16Str_5:
        LDR.W    R0,??DataTable8_7
        MOVS     R2,R1
        UXTB     R2,R2            ;; ZeroExt  R2,R2,#+24,#+24
        LDRB     R0,[R0, R2]
        CMP      R0,#+128
        BLT.N    ??LCD_P14x16Str_7
        LDR.W    R0,??DataTable8_7
        MOVS     R2,R1
        UXTB     R2,R2            ;; ZeroExt  R2,R2,#+24,#+24
        LDRB     R0,[R0, R2]
        MOVS     R2,R7
        UXTB     R2,R2            ;; ZeroExt  R2,R2,#+24,#+24
        LDRB     R2,[R6, R2]
        CMP      R0,R2
        BNE.N    ??LCD_P14x16Str_6
        LDR.W    R0,??DataTable8_7
        MOVS     R2,R1
        UXTB     R2,R2            ;; ZeroExt  R2,R2,#+24,#+24
        ADD      R0,R0,R2
        LDRB     R0,[R0, #+1]
        MOVS     R2,R7
        UXTB     R2,R2            ;; ZeroExt  R2,R2,#+24,#+24
        ADD      R2,R6,R2
        LDRB     R2,[R2, #+1]
        CMP      R0,R2
        BNE.N    ??LCD_P14x16Str_6
        UXTB     R1,R1            ;; ZeroExt  R1,R1,#+24,#+24
        MOVS     R0,#+14
        MULS     R1,R0,R1
        MOV      R8,R1
??LCD_P14x16Str_7:
        MOVS     R0,R4
        UXTB     R0,R0            ;; ZeroExt  R0,R0,#+24,#+24
        CMP      R0,#+119
        BLT.N    ??LCD_P14x16Str_8
        MOVS     R4,#+0
        ADDS     R5,R5,#+1
??LCD_P14x16Str_8:
        MOVS     R1,R5
        UXTB     R1,R1            ;; ZeroExt  R1,R1,#+24,#+24
        MOVS     R0,R4
        UXTB     R0,R0            ;; ZeroExt  R0,R0,#+24,#+24
        BL       LCD_Set_Pos
        CMP      R8,#+1
        BEQ.N    ??LCD_P14x16Str_9
        MOVS     R1,R5
        UXTB     R1,R1            ;; ZeroExt  R1,R1,#+24,#+24
        MOVS     R0,R4
        UXTB     R0,R0            ;; ZeroExt  R0,R0,#+24,#+24
        BL       LCD_Set_Pos
        MOVS     R9,#+0
        B.N      ??LCD_P14x16Str_10
??LCD_P14x16Str_11:
        LDR.W    R0,??DataTable8_8
        LDRB     R0,[R0, R8]
        BL       LCD_WrDat
        ADDS     R8,R8,#+1
        ADDS     R9,R9,#+1
??LCD_P14x16Str_10:
        MOV      R0,R9
        UXTB     R0,R0            ;; ZeroExt  R0,R0,#+24,#+24
        CMP      R0,#+14
        BLT.N    ??LCD_P14x16Str_11
        ADDS     R1,R5,#+1
        UXTB     R1,R1            ;; ZeroExt  R1,R1,#+24,#+24
        MOVS     R0,R4
        UXTB     R0,R0            ;; ZeroExt  R0,R0,#+24,#+24
        BL       LCD_Set_Pos
        MOVS     R9,#+0
??LCD_P14x16Str_12:
        MOV      R0,R9
        UXTB     R0,R0            ;; ZeroExt  R0,R0,#+24,#+24
        CMP      R0,#+14
        BGE.N    ??LCD_P14x16Str_3
        LDR.W    R0,??DataTable8_8
        LDRB     R0,[R0, R8]
        BL       LCD_WrDat
        ADDS     R8,R8,#+1
        ADDS     R9,R9,#+1
        B.N      ??LCD_P14x16Str_12
??LCD_P14x16Str_9:
        ADDS     R7,R7,#+1
        MOVS     R1,R5
        UXTB     R1,R1            ;; ZeroExt  R1,R1,#+24,#+24
        MOVS     R0,R4
        UXTB     R0,R0            ;; ZeroExt  R0,R0,#+24,#+24
        BL       LCD_Set_Pos
        MOVS     R8,#+0
        B.N      ??LCD_P14x16Str_13
??LCD_P14x16Str_14:
        MOVS     R0,#+0
        BL       LCD_WrDat
        ADDS     R8,R8,#+1
??LCD_P14x16Str_13:
        MOV      R0,R8
        UXTB     R0,R0            ;; ZeroExt  R0,R0,#+24,#+24
        CMP      R0,#+16
        BLT.N    ??LCD_P14x16Str_14
        ADDS     R1,R5,#+1
        UXTB     R1,R1            ;; ZeroExt  R1,R1,#+24,#+24
        MOVS     R0,R4
        UXTB     R0,R0            ;; ZeroExt  R0,R0,#+24,#+24
        BL       LCD_Set_Pos
        MOVS     R8,#+0
        B.N      ??LCD_P14x16Str_2
//  700 	}
//  701 }
??LCD_P14x16Str_4:
        POP      {R0,R4-R9,PC}    ;; return
//  702 //@@@@@@@@@@@@

        SECTION `.text`:CODE:NOROOT(1)
        THUMB
//  703 void LCD_Print(unsigned char x, unsigned char y, unsigned char ch[])
//  704 {
LCD_Print:
        PUSH     {R3-R7,LR}
        MOVS     R4,R0
        MOVS     R5,R1
        MOVS     R6,R2
//  705 	unsigned char ch2[3];
//  706 	unsigned char ii=0;        
        MOVS     R7,#+0
        B.N      ??LCD_Print_0
//  707 	while(ch[ii] != '\0')
//  708 	{
//  709 		if(ch[ii] > 127)
//  710 		{
//  711 			ch2[0] = ch[ii];
??LCD_Print_1:
        MOVS     R0,R7
        UXTB     R0,R0            ;; ZeroExt  R0,R0,#+24,#+24
        LDRB     R0,[R6, R0]
        STRB     R0,[SP, #+0]
//  712 	 		ch2[1] = ch[ii + 1];
        MOVS     R0,R7
        UXTB     R0,R0            ;; ZeroExt  R0,R0,#+24,#+24
        ADD      R0,R6,R0
        LDRB     R0,[R0, #+1]
        STRB     R0,[SP, #+1]
//  713 			ch2[2] = '\0';			//@@@@@@@
        MOVS     R0,#+0
        STRB     R0,[SP, #+2]
//  714 			LCD_P14x16Str(x , y, ch2);	//@@@@
        MOV      R2,SP
        MOVS     R1,R5
        UXTB     R1,R1            ;; ZeroExt  R1,R1,#+24,#+24
        MOVS     R0,R4
        UXTB     R0,R0            ;; ZeroExt  R0,R0,#+24,#+24
        BL       LCD_P14x16Str
//  715 			x += 14;
        ADDS     R4,R4,#+14
//  716 			ii += 2;
        ADDS     R7,R7,#+2
//  717 		}
??LCD_Print_0:
        MOVS     R0,R7
        UXTB     R0,R0            ;; ZeroExt  R0,R0,#+24,#+24
        LDRB     R0,[R6, R0]
        CMP      R0,#+0
        BEQ.N    ??LCD_Print_2
        MOVS     R0,R7
        UXTB     R0,R0            ;; ZeroExt  R0,R0,#+24,#+24
        LDRB     R0,[R6, R0]
        CMP      R0,#+128
        BGE.N    ??LCD_Print_1
//  718 		else
//  719 		{
//  720 			ch2[0] = ch[ii];	
        MOVS     R0,R7
        UXTB     R0,R0            ;; ZeroExt  R0,R0,#+24,#+24
        LDRB     R0,[R6, R0]
        STRB     R0,[SP, #+0]
//  721 			ch2[1] = '\0';			//@@@@@@@
        MOVS     R0,#+0
        STRB     R0,[SP, #+1]
//  722 			LCD_P8x16Str(x , y , ch2);	//@@@@
        MOV      R2,SP
        MOVS     R1,R5
        UXTB     R1,R1            ;; ZeroExt  R1,R1,#+24,#+24
        MOVS     R0,R4
        UXTB     R0,R0            ;; ZeroExt  R0,R0,#+24,#+24
        BL       LCD_P8x16Str
//  723 			x += 8;
        ADDS     R4,R4,#+8
//  724 			ii+= 1;
        ADDS     R7,R7,#+1
        B.N      ??LCD_Print_0
//  725 		}
//  726 	}
//  727 } 
??LCD_Print_2:
        POP      {R0,R4-R7,PC}    ;; return
//  728 
//  729 //==============================================================
//  730 //@@@@ void Draw_BMP(unsigned char x,unsigned char y)
//  731 //@@@@@@@BMP@@12864
//  732 //@@@@@@@@(x,y),x@@@0@127@y@@@@@0@7
//  733 //@@@@
//  734 //==============================================================

        SECTION `.text`:CODE:NOROOT(1)
        THUMB
//  735 void Draw_BMP(unsigned char x0,unsigned char y0,unsigned char x1,unsigned char y1,unsigned char * bmp)
//  736 { 	
Draw_BMP:
        PUSH     {R4-R10,LR}
        MOVS     R6,R3
//  737   unsigned int ii=0;
        MOVS     R7,#+0
//  738   unsigned char x,y;
//  739   
//  740   if(y1%8==0) y=y1/8;      
        MOVS     R3,R6
        UXTB     R3,R3            ;; ZeroExt  R3,R3,#+24,#+24
        MOVS     R4,#+8
        SDIV     R5,R3,R4
        MLS      R3,R4,R5,R3
        CMP      R3,#+0
        BNE.N    ??Draw_BMP_0
        MOVS     R3,R6
        UXTB     R3,R3            ;; ZeroExt  R3,R3,#+24,#+24
        MOVS     R4,#+8
        SDIV     R3,R3,R4
        B.N      ??Draw_BMP_1
//  741   else y=y1/8+1;
??Draw_BMP_0:
        MOVS     R3,R6
        UXTB     R3,R3            ;; ZeroExt  R3,R3,#+24,#+24
        MOVS     R4,#+8
        SDIV     R3,R3,R4
        ADDS     R3,R3,#+1
??Draw_BMP_1:
        LDR      R8,[SP, #+32]
        MOVS     R4,R2
        MOVS     R5,R0
//  742 	for(y=y0;y<=y1;y++)
        MOV      R9,R1
        B.N      ??Draw_BMP_2
//  743 	{
//  744 		LCD_Set_Pos(x0,y);				
//  745     for(x=x0;x<x1;x++)
//  746 	    {      
//  747 	    	LCD_WrDat(bmp[ii++]);	    	
??Draw_BMP_3:
        LDRB     R0,[R8, R7]
        BL       LCD_WrDat
        ADDS     R7,R7,#+1
//  748 	    }
        ADDS     R10,R10,#+1
??Draw_BMP_4:
        MOV      R0,R10
        MOVS     R1,R4
        UXTB     R0,R0            ;; ZeroExt  R0,R0,#+24,#+24
        UXTB     R1,R1            ;; ZeroExt  R1,R1,#+24,#+24
        CMP      R0,R1
        BCC.N    ??Draw_BMP_3
        ADDS     R9,R9,#+1
??Draw_BMP_2:
        MOVS     R0,R6
        MOV      R1,R9
        UXTB     R0,R0            ;; ZeroExt  R0,R0,#+24,#+24
        UXTB     R1,R1            ;; ZeroExt  R1,R1,#+24,#+24
        CMP      R0,R1
        BCC.N    ??Draw_BMP_5
        MOV      R1,R9
        UXTB     R1,R1            ;; ZeroExt  R1,R1,#+24,#+24
        MOVS     R0,R5
        UXTB     R0,R0            ;; ZeroExt  R0,R0,#+24,#+24
        BL       LCD_Set_Pos
        MOV      R10,R5
        B.N      ??Draw_BMP_4
//  749 	}
//  750 }
??Draw_BMP_5:
        POP      {R4-R10,PC}      ;; return

        SECTION `.text`:CODE:NOROOT(1)
        THUMB
//  751 void Draw_LQLogo(void)
//  752 { 	
Draw_LQLogo:
        PUSH     {R4-R6,LR}
//  753   unsigned int ii=0;
        MOVS     R4,#+0
//  754   unsigned char x,y;       
//  755   
//  756 	for(y=0;y<8;y++)
        MOVS     R6,#+0
        B.N      ??Draw_LQLogo_0
//  757 	{
//  758 		LCD_Set_Pos(16,y);				
//  759     for(x=16;x<112;x++)
//  760 	    {      
//  761 	    	LCD_WrDat(longqiu96x64[ii++]);	    	
??Draw_LQLogo_1:
        LDR.N    R0,??DataTable8_9
        LDRB     R0,[R0, R4]
        BL       LCD_WrDat
        ADDS     R4,R4,#+1
//  762 	    }
        ADDS     R5,R5,#+1
??Draw_LQLogo_2:
        MOVS     R0,R5
        UXTB     R0,R0            ;; ZeroExt  R0,R0,#+24,#+24
        CMP      R0,#+112
        BLT.N    ??Draw_LQLogo_1
        ADDS     R6,R6,#+1
??Draw_LQLogo_0:
        MOVS     R0,R6
        UXTB     R0,R0            ;; ZeroExt  R0,R0,#+24,#+24
        CMP      R0,#+8
        BGE.N    ??Draw_LQLogo_3
        MOVS     R1,R6
        UXTB     R1,R1            ;; ZeroExt  R1,R1,#+24,#+24
        MOVS     R0,#+16
        BL       LCD_Set_Pos
        MOVS     R5,#+16
        B.N      ??Draw_LQLogo_2
//  763 	}
//  764 }
??Draw_LQLogo_3:
        POP      {R4-R6,PC}       ;; return

        SECTION `.text`:CODE:NOROOT(1)
        THUMB
//  765 void Draw_LibLogo(void)
//  766 { 	
Draw_LibLogo:
        PUSH     {R4-R6,LR}
//  767   unsigned int ii=0;
        MOVS     R4,#+0
//  768   unsigned char x,y;       
//  769   
//  770 	for(y=0;y<8;y++)
        MOVS     R6,#+0
        B.N      ??Draw_LibLogo_0
//  771 	{
//  772 		LCD_Set_Pos(34,y);				
//  773     for(x=34;x<94;x++)
//  774 	    {      
//  775 	    	LCD_WrDat(LIBLOGO60x58[ii++]);	    	
??Draw_LibLogo_1:
        LDR.N    R0,??DataTable8_10
        LDRB     R0,[R0, R4]
        BL       LCD_WrDat
        ADDS     R4,R4,#+1
//  776 	    }
        ADDS     R5,R5,#+1
??Draw_LibLogo_2:
        MOVS     R0,R5
        UXTB     R0,R0            ;; ZeroExt  R0,R0,#+24,#+24
        CMP      R0,#+94
        BLT.N    ??Draw_LibLogo_1
        ADDS     R6,R6,#+1
??Draw_LibLogo_0:
        MOVS     R0,R6
        UXTB     R0,R0            ;; ZeroExt  R0,R0,#+24,#+24
        CMP      R0,#+8
        BGE.N    ??Draw_LibLogo_3
        MOVS     R1,R6
        UXTB     R1,R1            ;; ZeroExt  R1,R1,#+24,#+24
        MOVS     R0,#+34
        BL       LCD_Set_Pos
        MOVS     R5,#+34
        B.N      ??Draw_LibLogo_2
//  777 	}
//  778 }
??Draw_LibLogo_3:
        POP      {R4-R6,PC}       ;; return
//  779 
//  780 
//  781 

        SECTION `.text`:CODE:NOROOT(1)
        THUMB
//  782 void LCD_PrintU16(unsigned char x,unsigned char y,unsigned int num)
//  783 {
LCD_PrintU16:
        PUSH     {R1-R5,LR}
//  784 	unsigned char tmp[6],i;
//  785 	tmp[5]=0;
        MOVS     R3,#+0
        STRB     R3,[SP, #+5]
//  786 	tmp[4]=(unsigned char)(num%10+0x30);
        MOVS     R3,#+10
        UDIV     R4,R2,R3
        MLS      R3,R3,R4,R2
        ADDS     R3,R3,#+48
        STRB     R3,[SP, #+4]
//  787 	tmp[3]=(unsigned char)(num/10%10+0x30);
        MOVS     R3,#+10
        UDIV     R3,R2,R3
        MOVS     R4,#+10
        UDIV     R5,R3,R4
        MLS      R3,R4,R5,R3
        ADDS     R3,R3,#+48
        STRB     R3,[SP, #+3]
//  788 	tmp[2]=(unsigned char)(num/100%10+0x30);
        MOVS     R3,#+100
        UDIV     R3,R2,R3
        MOVS     R4,#+10
        UDIV     R5,R3,R4
        MLS      R3,R4,R5,R3
        ADDS     R3,R3,#+48
        STRB     R3,[SP, #+2]
//  789 	tmp[1]=(unsigned char)(num/1000%10+0x30);
        MOV      R3,#+1000
        UDIV     R3,R2,R3
        MOVS     R4,#+10
        UDIV     R5,R3,R4
        MLS      R3,R4,R5,R3
        ADDS     R3,R3,#+48
        STRB     R3,[SP, #+1]
//  790 	tmp[0]=(unsigned char)(num/10000%10+0x30);
        MOVW     R3,#+10000
        UDIV     R2,R2,R3
        MOVS     R3,#+10
        UDIV     R4,R2,R3
        MLS      R2,R3,R4,R2
        ADDS     R2,R2,#+48
        STRB     R2,[SP, #+0]
//  791 	
//  792 	for(i=0;i<4;i++)
        MOVS     R2,#+0
        B.N      ??LCD_PrintU16_0
//  793 	{
//  794 		if(tmp[i]=='0')
//  795 			tmp[i]=' ';
??LCD_PrintU16_1:
        MOVS     R3,#+32
        MOV      R4,SP
        MOVS     R5,R2
        UXTB     R5,R5            ;; ZeroExt  R5,R5,#+24,#+24
        STRB     R3,[R4, R5]
        ADDS     R2,R2,#+1
??LCD_PrintU16_0:
        MOVS     R3,R2
        UXTB     R3,R3            ;; ZeroExt  R3,R3,#+24,#+24
        CMP      R3,#+4
        BGE.N    ??LCD_PrintU16_2
        MOV      R3,SP
        MOVS     R4,R2
        UXTB     R4,R4            ;; ZeroExt  R4,R4,#+24,#+24
        LDRB     R3,[R3, R4]
        CMP      R3,#+48
        BEQ.N    ??LCD_PrintU16_1
//  796 		else
//  797 			break;
//  798 	}
//  799 	
//  800 	LCD_P6x8Str(x,y,tmp);
??LCD_PrintU16_2:
        MOV      R2,SP
        UXTB     R1,R1            ;; ZeroExt  R1,R1,#+24,#+24
        UXTB     R0,R0            ;; ZeroExt  R0,R0,#+24,#+24
        BL       LCD_P6x8Str
//  801 	
//  802 }
        POP      {R0-R2,R4,R5,PC}  ;; return

        SECTION `.text`:CODE:NOROOT(1)
        THUMB
//  803 void LCD_PrintFloat(unsigned char x,unsigned char y,float num)//@@@@
//  804 {
LCD_PrintFloat:
        PUSH     {R2-R6,LR}
        MOVS     R4,R0
        MOVS     R5,R1
        MOVS     R1,R2
//  805 	unsigned char tmp[6],i;
//  806 	tmp[5]=0;
        MOVS     R0,#+0
        STRB     R0,[SP, #+5]
//  807 	num *= 10;
        LDR.N    R0,??DataTable8_11  ;; 0x41200000
        BL       __aeabi_fmul
        MOVS     R6,R0
//  808 	if(num>0)
        MOVS     R0,R6
        MOVS     R1,#+0
        BL       __aeabi_cfrcmple
        BCS.N    ??LCD_PrintFloat_0
//  809 	{
//  810 		tmp[0]='+';
        MOVS     R0,#+43
        STRB     R0,[SP, #+0]
//  811 		tmp[4]=(unsigned char)((int)num%10+0x30);
        MOVS     R0,R6
        BL       __aeabi_f2iz
        MOVS     R1,#+10
        SDIV     R2,R0,R1
        MLS      R0,R1,R2,R0
        ADDS     R0,R0,#+48
        STRB     R0,[SP, #+4]
//  812 		tmp[3]=(unsigned char)((int)num/10%10+0x30);
        MOVS     R0,R6
        BL       __aeabi_f2iz
        MOVS     R1,#+10
        SDIV     R0,R0,R1
        MOVS     R1,#+10
        SDIV     R2,R0,R1
        MLS      R0,R1,R2,R0
        ADDS     R0,R0,#+48
        STRB     R0,[SP, #+3]
//  813 		tmp[2]=(unsigned char)((int)num/100%10+0x30);
        MOVS     R0,R6
        BL       __aeabi_f2iz
        MOVS     R1,#+100
        SDIV     R0,R0,R1
        MOVS     R1,#+10
        SDIV     R2,R0,R1
        MLS      R0,R1,R2,R0
        ADDS     R0,R0,#+48
        STRB     R0,[SP, #+2]
//  814 		tmp[1]=(unsigned char)((int)num/1000%10+0x30);
        MOVS     R0,R6
        BL       __aeabi_f2iz
        MOV      R1,#+1000
        SDIV     R0,R0,R1
        MOVS     R1,#+10
        SDIV     R2,R0,R1
        MLS      R0,R1,R2,R0
        ADDS     R0,R0,#+48
        STRB     R0,[SP, #+1]
        B.N      ??LCD_PrintFloat_1
//  815 	}
//  816 	else
//  817 	{
//  818 		tmp[0]='-';
??LCD_PrintFloat_0:
        MOVS     R0,#+45
        STRB     R0,[SP, #+0]
//  819 		num=-num;
        EORS     R6,R6,#0x80000000
//  820 		tmp[4]=(unsigned char)((int)num%10+0x30);
        MOVS     R0,R6
        BL       __aeabi_f2iz
        MOVS     R1,#+10
        SDIV     R2,R0,R1
        MLS      R0,R1,R2,R0
        ADDS     R0,R0,#+48
        STRB     R0,[SP, #+4]
//  821 		tmp[3]=(unsigned char)((int)num/10%10+0x30);
        MOVS     R0,R6
        BL       __aeabi_f2iz
        MOVS     R1,#+10
        SDIV     R0,R0,R1
        MOVS     R1,#+10
        SDIV     R2,R0,R1
        MLS      R0,R1,R2,R0
        ADDS     R0,R0,#+48
        STRB     R0,[SP, #+3]
//  822 		tmp[2]=(unsigned char)((int)num/100%10+0x30);
        MOVS     R0,R6
        BL       __aeabi_f2iz
        MOVS     R1,#+100
        SDIV     R0,R0,R1
        MOVS     R1,#+10
        SDIV     R2,R0,R1
        MLS      R0,R1,R2,R0
        ADDS     R0,R0,#+48
        STRB     R0,[SP, #+2]
//  823 		tmp[1]=(unsigned char)((int)num/1000%10+0x30);
        MOVS     R0,R6
        BL       __aeabi_f2iz
        MOV      R1,#+1000
        SDIV     R0,R0,R1
        MOVS     R1,#+10
        SDIV     R2,R0,R1
        MLS      R0,R1,R2,R0
        ADDS     R0,R0,#+48
        STRB     R0,[SP, #+1]
//  824 	}
//  825 	for(i=0;i<4;i++)
??LCD_PrintFloat_1:
        MOVS     R0,#+0
        B.N      ??LCD_PrintFloat_2
//  826 	{
//  827 		if(tmp[i]=='0')
//  828 			tmp[i]=' ';
??LCD_PrintFloat_3:
        MOVS     R1,#+32
        MOV      R2,SP
        MOVS     R3,R0
        UXTB     R3,R3            ;; ZeroExt  R3,R3,#+24,#+24
        STRB     R1,[R2, R3]
        ADDS     R0,R0,#+1
??LCD_PrintFloat_2:
        MOVS     R1,R0
        UXTB     R1,R1            ;; ZeroExt  R1,R1,#+24,#+24
        CMP      R1,#+4
        BGE.N    ??LCD_PrintFloat_4
        MOV      R1,SP
        MOVS     R2,R0
        UXTB     R2,R2            ;; ZeroExt  R2,R2,#+24,#+24
        LDRB     R1,[R1, R2]
        CMP      R1,#+48
        BEQ.N    ??LCD_PrintFloat_3
//  829 		else
//  830 			break;
//  831 	}
//  832 	LCD_P6x8Str(x,y,tmp);
??LCD_PrintFloat_4:
        MOV      R2,SP
        MOVS     R1,R5
        UXTB     R1,R1            ;; ZeroExt  R1,R1,#+24,#+24
        MOVS     R0,R4
        UXTB     R0,R0            ;; ZeroExt  R0,R0,#+24,#+24
        BL       LCD_P6x8Str
//  833 }
        POP      {R0,R1,R4-R6,PC}  ;; return

        SECTION `.text`:CODE:NOROOT(2)
        SECTION_TYPE SHT_PROGBITS, 0
        DATA
??DataTable8:
        DC32     0x43fe1034

        SECTION `.text`:CODE:NOROOT(2)
        SECTION_TYPE SHT_PROGBITS, 0
        DATA
??DataTable8_1:
        DC32     0x43fe1040

        SECTION `.text`:CODE:NOROOT(2)
        SECTION_TYPE SHT_PROGBITS, 0
        DATA
??DataTable8_2:
        DC32     0x43fe103c

        SECTION `.text`:CODE:NOROOT(2)
        SECTION_TYPE SHT_PROGBITS, 0
        DATA
??DataTable8_3:
        DC32     0x400ff080

        SECTION `.text`:CODE:NOROOT(2)
        SECTION_TYPE SHT_PROGBITS, 0
        DATA
??DataTable8_4:
        DC32     0x43fe1038

        SECTION `.text`:CODE:NOROOT(2)
        SECTION_TYPE SHT_PROGBITS, 0
        DATA
??DataTable8_5:
        DC32     F6x8

        SECTION `.text`:CODE:NOROOT(2)
        SECTION_TYPE SHT_PROGBITS, 0
        DATA
??DataTable8_6:
        DC32     F8X16

        SECTION `.text`:CODE:NOROOT(2)
        SECTION_TYPE SHT_PROGBITS, 0
        DATA
??DataTable8_7:
        DC32     F14x16_Idx

        SECTION `.text`:CODE:NOROOT(2)
        SECTION_TYPE SHT_PROGBITS, 0
        DATA
??DataTable8_8:
        DC32     F14x16

        SECTION `.text`:CODE:NOROOT(2)
        SECTION_TYPE SHT_PROGBITS, 0
        DATA
??DataTable8_9:
        DC32     longqiu96x64

        SECTION `.text`:CODE:NOROOT(2)
        SECTION_TYPE SHT_PROGBITS, 0
        DATA
??DataTable8_10:
        DC32     LIBLOGO60x58

        SECTION `.text`:CODE:NOROOT(2)
        SECTION_TYPE SHT_PROGBITS, 0
        DATA
??DataTable8_11:
        DC32     0x41200000
//  834 

        SECTION `.text`:CODE:NOROOT(1)
        THUMB
//  835 void LCD_ClrDot(unsigned char x)  //@@CCD@
//  836 {
LCD_ClrDot:
        PUSH     {R4,LR}
        MOVS     R4,R0
//  837 	LCD_Set_Pos(x,6);
        MOVS     R1,#+6
        MOVS     R0,R4
        UXTB     R0,R0            ;; ZeroExt  R0,R0,#+24,#+24
        BL       LCD_Set_Pos
//  838 	LCD_WrCmd((unsigned char)(0xb0+6));
        MOVS     R0,#+182
        BL       LCD_WrCmd
//  839 	LCD_WrCmd((unsigned char)(((x&0xf0)>>4)|0x10));
        MOVS     R0,R4
        UXTB     R0,R0            ;; ZeroExt  R0,R0,#+24,#+24
        LSRS     R0,R0,#+4
        ORRS     R0,R0,#0x10
        UXTB     R0,R0            ;; ZeroExt  R0,R0,#+24,#+24
        BL       LCD_WrCmd
//  840 	LCD_WrCmd((unsigned char)((x&0x0f)|0x00));
        ANDS     R0,R4,#0xF
        BL       LCD_WrCmd
//  841 	LCD_WrDat(0x00);
        MOVS     R0,#+0
        BL       LCD_WrDat
//  842 	
//  843 	LCD_Set_Pos(x,7);
        MOVS     R1,#+7
        MOVS     R0,R4
        UXTB     R0,R0            ;; ZeroExt  R0,R0,#+24,#+24
        BL       LCD_Set_Pos
//  844 	LCD_WrCmd((unsigned char)(0xb0+7));
        MOVS     R0,#+183
        BL       LCD_WrCmd
//  845 	LCD_WrCmd((unsigned char)(((x&0xf0)>>4)|0x10));
        MOVS     R0,R4
        UXTB     R0,R0            ;; ZeroExt  R0,R0,#+24,#+24
        LSRS     R0,R0,#+4
        ORRS     R0,R0,#0x10
        UXTB     R0,R0            ;; ZeroExt  R0,R0,#+24,#+24
        BL       LCD_WrCmd
//  846 	LCD_WrCmd((unsigned char)((x&0x0f)|0x00));
        ANDS     R4,R4,#0xF
        MOVS     R0,R4
        BL       LCD_WrCmd
//  847 	LCD_WrDat(0x00);
        MOVS     R0,#+0
        BL       LCD_WrDat
//  848 } 
        POP      {R4,PC}          ;; return

        SECTION `.iar_vfe_header`:DATA:NOALLOC:NOROOT(2)
        SECTION_TYPE SHT_PROGBITS, 0
        DATA
        DC32 0

        END
// 
//   768 bytes in section .data
// 3 304 bytes in section .rodata
// 2 432 bytes in section .text
// 
// 2 432 bytes of CODE  memory
// 3 304 bytes of CONST memory
//   768 bytes of DATA  memory
//
//Errors: none
//Warnings: 1
